Archive member included to satisfy reference by file (symbol)

NuttX/nuttx/arch/arm/src/libarch.a(arm_vectors.o)
                              (_vectors)
NuttX/nuttx/arch/arm/src/libarch.a(arm_exception.o)
                              NuttX/nuttx/arch/arm/src/libarch.a(arm_vectors.o) (exception_common)
NuttX/nuttx/arch/arm/src/libarch.a(stm32_start.o)
                              NuttX/nuttx/arch/arm/src/libarch.a(arm_vectors.o) (__start)
NuttX/nuttx/arch/arm/src/libarch.a(stm32_rcc.o)
                              NuttX/nuttx/arch/arm/src/libarch.a(stm32_start.o) (stm32_clockconfig)
NuttX/nuttx/arch/arm/src/libarch.a(stm32_lowputc.o)
                              NuttX/nuttx/arch/arm/src/libarch.a(stm32_start.o) (stm32_lowsetup)
NuttX/nuttx/arch/arm/src/libarch.a(stm32_pwr.o)
                              NuttX/nuttx/arch/arm/src/libarch.a(stm32_rcc.o) (stm32_pwr_initbkp)
NuttX/nuttx/arch/arm/src/libarch.a(arm_doirq.o)
                              NuttX/nuttx/arch/arm/src/libarch.a(arm_exception.o) (arm_doirq)
NuttX/nuttx/arch/arm/src/libarch.a(arm_modifyreg32.o)
                              NuttX/nuttx/arch/arm/src/libarch.a(stm32_pwr.o) (modifyreg32)
NuttX/nuttx/arch/arm/src/libarch.a(arm_udelay.o)
                              NuttX/nuttx/arch/arm/src/libarch.a(stm32_pwr.o) (up_udelay)
NuttX/nuttx/arch/arm/src/libarch.a(arm_cache.o)
                              NuttX/nuttx/arch/arm/src/libarch.a(stm32_start.o) (up_enable_icache)
NuttX/nuttx/arch/arm/src/libarch.a(stm32_irq.o)
                              NuttX/nuttx/arch/arm/src/libarch.a(arm_doirq.o) (arm_ack_irq)
NuttX/nuttx/arch/arm/src/libarch.a(arm_hardfault.o)
                              NuttX/nuttx/arch/arm/src/libarch.a(stm32_irq.o) (arm_hardfault)
NuttX/nuttx/arch/arm/src/libarch.a(arm_svcall.o)
                              NuttX/nuttx/arch/arm/src/libarch.a(stm32_irq.o) (arm_svcall)
NuttX/nuttx/libs/libc/libc.a(arch_memcpy.o)
                              NuttX/nuttx/arch/arm/src/libarch.a(arm_svcall.o) (memcpy)
NuttX/nuttx/libs/libc/libc.a(lib_assert.o)
                              NuttX/nuttx/arch/arm/src/libarch.a(arm_hardfault.o) (_assert)
NuttX/nuttx/libs/libc/libc.a(lib_abort.o)
                              (abort)
boards/hkust/nxt/src/libdrivers_board.a(bootloader_main.c.obj)
                              NuttX/nuttx/arch/arm/src/libarch.a(stm32_start.o) (stm32_boardinitialize)
boards/hkust/nxt/src/libdrivers_board.a(usb.c.obj)
                              boards/hkust/nxt/src/libdrivers_board.a(bootloader_main.c.obj) (stm32_usbinitialize)
NuttX/nuttx/sched/libsched.a(nx_start.o)
                              NuttX/nuttx/arch/arm/src/libarch.a(stm32_start.o) (nx_start)
NuttX/nuttx/sched/libsched.a(nx_bringup.o)
                              NuttX/nuttx/sched/libsched.a(nx_start.o) (nx_bringup)
NuttX/nuttx/sched/libsched.a(irq_attach.o)
                              NuttX/nuttx/arch/arm/src/libarch.a(stm32_irq.o) (irq_attach)
NuttX/nuttx/sched/libsched.a(irq_dispatch.o)
                              NuttX/nuttx/arch/arm/src/libarch.a(arm_doirq.o) (irq_dispatch)
NuttX/nuttx/sched/libsched.a(irq_unexpectedisr.o)
                              NuttX/nuttx/sched/libsched.a(irq_attach.o) (irq_unexpected_isr)
NuttX/nuttx/sched/libsched.a(sched_lock.o)
                              NuttX/nuttx/sched/libsched.a(nx_start.o) (sched_lock)
NuttX/nuttx/sched/libsched.a(sched_unlock.o)
                              NuttX/nuttx/sched/libsched.a(nx_start.o) (sched_unlock)
NuttX/nuttx/sched/libsched.a(task_create.o)
                              NuttX/nuttx/sched/libsched.a(nx_bringup.o) (nxtask_create)
NuttX/nuttx/sched/libsched.a(task_init.o)
                              NuttX/nuttx/sched/libsched.a(task_create.o) (nxtask_init)
NuttX/nuttx/sched/libsched.a(task_setup.o)
                              NuttX/nuttx/sched/libsched.a(task_init.o) (nxtask_setup_scheduler)
NuttX/nuttx/sched/libsched.a(task_activate.o)
                              NuttX/nuttx/sched/libsched.a(task_create.o) (nxtask_activate)
NuttX/nuttx/sched/libsched.a(task_start.o)
                              NuttX/nuttx/sched/libsched.a(task_init.o) (nxtask_start)
NuttX/nuttx/sched/libsched.a(exit.o)
                              NuttX/nuttx/libs/libc/libc.a(lib_assert.o) (exit)
NuttX/nuttx/sched/libsched.a(group_create.o)
                              NuttX/nuttx/sched/libsched.a(nx_start.o) (group_allocate)
NuttX/nuttx/sched/libsched.a(group_leave.o)
                              NuttX/nuttx/sched/libsched.a(task_init.o) (group_leave)
NuttX/nuttx/sched/libsched.a(group_setupidlefiles.o)
                              NuttX/nuttx/sched/libsched.a(nx_start.o) (group_setupidlefiles)
NuttX/nuttx/sched/libsched.a(group_setuptaskfiles.o)
                              NuttX/nuttx/sched/libsched.a(task_init.o) (group_setuptaskfiles)
NuttX/nuttx/sched/libsched.a(irq_initialize.o)
                              NuttX/nuttx/sched/libsched.a(irq_attach.o) (g_irqvector)
NuttX/nuttx/sched/libsched.a(sched_releasetcb.o)
                              NuttX/nuttx/sched/libsched.a(task_init.o) (nxsched_release_tcb)
NuttX/nuttx/sched/libsched.a(sem_destroy.o)
                              NuttX/nuttx/sched/libsched.a(group_create.o) (nxsem_destroy)
NuttX/nuttx/sched/libsched.a(sig_procmask.o)
                              NuttX/nuttx/sched/libsched.a(task_setup.o) (nxsig_procmask)
NuttX/nuttx/sched/libsched.a(sig_unmaskpendingsignal.o)
                              NuttX/nuttx/sched/libsched.a(sig_procmask.o) (nxsig_unmask_pendingsignal)
NuttX/nuttx/sched/libsched.a(sig_removependingsignal.o)
                              NuttX/nuttx/sched/libsched.a(sig_unmaskpendingsignal.o) (nxsig_remove_pendingsignal)
NuttX/nuttx/sched/libsched.a(sig_releasependingsignal.o)
                              NuttX/nuttx/sched/libsched.a(sig_unmaskpendingsignal.o) (nxsig_release_pendingsignal)
NuttX/nuttx/sched/libsched.a(sig_lowest.o)
                              NuttX/nuttx/sched/libsched.a(sig_unmaskpendingsignal.o) (nxsig_lowest)
NuttX/nuttx/sched/libsched.a(sig_cleanup.o)
                              NuttX/nuttx/sched/libsched.a(group_leave.o) (nxsig_release)
NuttX/nuttx/sched/libsched.a(sig_dispatch.o)
                              NuttX/nuttx/sched/libsched.a(sig_unmaskpendingsignal.o) (nxsig_tcbdispatch)
NuttX/nuttx/sched/libsched.a(sig_deliver.o)
                              NuttX/nuttx/sched/libsched.a(sig_dispatch.o) (nxsig_deliver)
NuttX/nuttx/sched/libsched.a(sig_default.o)
                              NuttX/nuttx/sched/libsched.a(task_start.o) (nxsig_default_initialize)
NuttX/nuttx/sched/libsched.a(task_exithook.o)
                              NuttX/nuttx/sched/libsched.a(exit.o) (nxtask_exithook)
NuttX/nuttx/sched/libsched.a(task_recover.o)
                              NuttX/nuttx/sched/libsched.a(task_exithook.o) (nxtask_recover)
NuttX/nuttx/sched/libsched.a(task_cancelpt.o)
                              NuttX/nuttx/sched/libsched.a(sig_default.o) (nxnotify_cancellation)
NuttX/nuttx/sched/libsched.a(wd_recover.o)
                              NuttX/nuttx/sched/libsched.a(task_recover.o) (wd_recover)
NuttX/nuttx/sched/libsched.a(group_setupstreams.o)
                              NuttX/nuttx/sched/libsched.a(group_setupidlefiles.o) (group_setupstreams)
NuttX/nuttx/sched/libsched.a(sched_gettcb.o)
                              NuttX/nuttx/sched/libsched.a(sig_dispatch.o) (nxsched_get_tcb)
NuttX/nuttx/sched/libsched.a(sched_suspend.o)
                              NuttX/nuttx/sched/libsched.a(sig_default.o) (nxsched_suspend)
NuttX/nuttx/sched/libsched.a(sched_continue.o)
                              NuttX/nuttx/sched/libsched.a(sig_dispatch.o) (nxsched_continue)
NuttX/nuttx/sched/libsched.a(sem_recover.o)
                              NuttX/nuttx/sched/libsched.a(task_recover.o) (nxsem_recover)
NuttX/nuttx/sched/libsched.a(sem_waitirq.o)
                              NuttX/nuttx/sched/libsched.a(sig_dispatch.o) (nxsem_wait_irq)
NuttX/nuttx/sched/libsched.a(sig_initialize.o)
                              NuttX/nuttx/sched/libsched.a(sig_releasependingsignal.o) (g_sigpendingirqsignal)
NuttX/nuttx/sched/libsched.a(sig_action.o)
                              NuttX/nuttx/sched/libsched.a(sig_cleanup.o) (nxsig_release_action)
NuttX/nuttx/sched/libsched.a(sig_pending.o)
                              NuttX/nuttx/sched/libsched.a(sig_unmaskpendingsignal.o) (nxsig_pendingset)
NuttX/nuttx/sched/libsched.a(sig_findaction.o)
                              NuttX/nuttx/sched/libsched.a(sig_dispatch.o) (nxsig_find_action)
NuttX/nuttx/sched/libsched.a(sig_allocpendingsigaction.o)
                              NuttX/nuttx/sched/libsched.a(sig_dispatch.o) (nxsig_alloc_pendingsigaction)
NuttX/nuttx/sched/libsched.a(sig_releasependingsigaction.o)
                              NuttX/nuttx/sched/libsched.a(sig_cleanup.o) (nxsig_release_pendingsigaction)
NuttX/nuttx/sched/libsched.a(wd_cancel.o)
                              NuttX/nuttx/sched/libsched.a(wd_recover.o) (wd_cancel)
NuttX/nuttx/sched/libsched.a(sched_addblocked.o)
                              NuttX/nuttx/sched/libsched.a(sched_suspend.o) (nxsched_add_blocked)
NuttX/nuttx/sched/libsched.a(sched_removeblocked.o)
                              NuttX/nuttx/sched/libsched.a(sched_suspend.o) (nxsched_remove_blocked)
NuttX/nuttx/sched/libsched.a(wd_initialize.o)
                              NuttX/nuttx/sched/libsched.a(wd_cancel.o) (g_wdactivelist)
NuttX/nuttx/sched/libsched.a(sched_addprioritized.o)
                              NuttX/nuttx/sched/libsched.a(sched_addblocked.o) (nxsched_add_prioritized)
NuttX/apps/libapps.a(cdcacm_main.c.src.NxtPX4.PX4-Autopilot.platforms.nuttx.NuttX.apps.system.cdcacm.o)
                              boards/hkust/nxt/src/libdrivers_board.a(bootloader_main.c.obj) (sercon_main)
NuttX/nuttx/arch/arm/src/libarch.a(stm32_allocateheap.o)
                              NuttX/nuttx/sched/libsched.a(nx_start.o) (up_allocate_heap)
NuttX/nuttx/arch/arm/src/libarch.a(stm32_gpio.o)
                              boards/hkust/nxt/src/libdrivers_board.a(usb.c.obj) (stm32_configgpio)
NuttX/nuttx/arch/arm/src/libarch.a(arm_assert.o)
                              NuttX/nuttx/libs/libc/libc.a(lib_assert.o) (up_assert)
NuttX/nuttx/arch/arm/src/libarch.a(arm_blocktask.o)
                              NuttX/nuttx/sched/libsched.a(sched_suspend.o) (up_block_task)
NuttX/nuttx/arch/arm/src/libarch.a(arm_copyfullstate.o)
                              NuttX/nuttx/arch/arm/src/libarch.a(arm_blocktask.o) (arm_copyfullstate)
NuttX/nuttx/arch/arm/src/libarch.a(arm_createstack.o)
                              NuttX/nuttx/sched/libsched.a(task_init.o) (up_create_stack)
NuttX/nuttx/arch/arm/src/libarch.a(arm_exit.o)
                              NuttX/nuttx/sched/libsched.a(exit.o) (up_exit)
NuttX/nuttx/arch/arm/src/libarch.a(arm_initialize.o)
                              NuttX/nuttx/sched/libsched.a(nx_start.o) (up_initialize)
NuttX/nuttx/arch/arm/src/libarch.a(arm_initialstate.o)
                              NuttX/nuttx/sched/libsched.a(nx_start.o) (up_initial_state)
NuttX/nuttx/arch/arm/src/libarch.a(arm_interruptcontext.o)
                              NuttX/nuttx/sched/libsched.a(sched_lock.o) (up_interrupt_context)
NuttX/nuttx/arch/arm/src/libarch.a(arm_releasepending.o)
                              NuttX/nuttx/sched/libsched.a(sched_unlock.o) (up_release_pending)
NuttX/nuttx/arch/arm/src/libarch.a(arm_releasestack.o)
                              NuttX/nuttx/sched/libsched.a(task_init.o) (up_release_stack)
NuttX/nuttx/arch/arm/src/libarch.a(arm_schedulesigaction.o)
                              NuttX/nuttx/sched/libsched.a(sig_dispatch.o) (up_schedule_sigaction)
NuttX/nuttx/arch/arm/src/libarch.a(arm_sigdeliver.o)
                              NuttX/nuttx/arch/arm/src/libarch.a(arm_schedulesigaction.o) (arm_sigdeliver)
NuttX/nuttx/arch/arm/src/libarch.a(arm_stackframe.o)
                              NuttX/nuttx/sched/libsched.a(nx_start.o) (up_stack_frame)
NuttX/nuttx/arch/arm/src/libarch.a(arm_unblocktask.o)
                              NuttX/nuttx/sched/libsched.a(task_activate.o) (up_unblock_task)
NuttX/nuttx/arch/arm/src/libarch.a(arm_usestack.o)
                              NuttX/nuttx/sched/libsched.a(task_init.o) (up_use_stack)
NuttX/nuttx/arch/arm/src/libarch.a(arm_idle.o)
                              NuttX/nuttx/sched/libsched.a(nx_start.o) (up_idle)
NuttX/nuttx/arch/arm/src/libarch.a(arm_checkstack.o)
                              NuttX/nuttx/arch/arm/src/libarch.a(arm_createstack.o) (arm_stack_color)
NuttX/nuttx/arch/arm/src/libarch.a(arm_fullcontextrestore.o)
                              NuttX/nuttx/arch/arm/src/libarch.a(arm_exit.o) (arm_fullcontextrestore)
NuttX/nuttx/arch/arm/src/libarch.a(arm_switchcontext.o)
                              NuttX/nuttx/arch/arm/src/libarch.a(arm_blocktask.o) (arm_switchcontext)
NuttX/nuttx/arch/arm/src/libarch.a(stm32_serial.o)
                              NuttX/nuttx/arch/arm/src/libarch.a(arm_initialize.o) (arm_serialinit)
NuttX/nuttx/arch/arm/src/libarch.a(stm32_otgdev.o)
                              NuttX/nuttx/arch/arm/src/libarch.a(arm_initialize.o) (arm_usbinitialize)
NuttX/nuttx/arch/arm/src/libarch.a(arm_mdelay.o)
                              NuttX/nuttx/arch/arm/src/libarch.a(stm32_otgdev.o) (up_mdelay)
NuttX/nuttx/mm/libmm.a(umm_initialize.o)
                              NuttX/nuttx/sched/libsched.a(nx_start.o) (umm_initialize)
NuttX/nuttx/mm/libmm.a(umm_free.o)
                              NuttX/nuttx/sched/libsched.a(task_create.o) (free)
NuttX/nuttx/mm/libmm.a(umm_malloc.o)
                              NuttX/nuttx/sched/libsched.a(nx_start.o) (malloc)
NuttX/nuttx/mm/libmm.a(umm_memalign.o)
                              NuttX/nuttx/arch/arm/src/libarch.a(arm_createstack.o) (memalign)
NuttX/nuttx/mm/libmm.a(umm_zalloc.o)
                              NuttX/nuttx/sched/libsched.a(task_create.o) (zalloc)
NuttX/nuttx/mm/libmm.a(mm_initialize.o)
                              NuttX/nuttx/mm/libmm.a(umm_initialize.o) (mm_initialize)
NuttX/nuttx/mm/libmm.a(mm_sem.o)
                              NuttX/nuttx/mm/libmm.a(mm_initialize.o) (mm_seminitialize)
NuttX/nuttx/mm/libmm.a(mm_addfreechunk.o)
                              NuttX/nuttx/mm/libmm.a(mm_initialize.o) (mm_addfreechunk)
NuttX/nuttx/mm/libmm.a(mm_size2ndx.o)
                              NuttX/nuttx/mm/libmm.a(mm_addfreechunk.o) (mm_size2ndx)
NuttX/nuttx/mm/libmm.a(mm_free.o)
                              NuttX/nuttx/mm/libmm.a(umm_free.o) (mm_free)
NuttX/nuttx/mm/libmm.a(mm_malloc.o)
                              NuttX/nuttx/mm/libmm.a(umm_malloc.o) (mm_malloc)
NuttX/nuttx/mm/libmm.a(mm_memalign.o)
                              NuttX/nuttx/mm/libmm.a(umm_memalign.o) (mm_memalign)
NuttX/nuttx/mm/libmm.a(mm_zalloc.o)
                              NuttX/nuttx/mm/libmm.a(umm_zalloc.o) (mm_zalloc)
NuttX/nuttx/mm/libmm.a(umm_globals.o)
                              NuttX/nuttx/mm/libmm.a(umm_initialize.o) (g_mmheap)
NuttX/nuttx/mm/libmm.a(mm_shrinkchunk.o)
                              NuttX/nuttx/mm/libmm.a(mm_memalign.o) (mm_shrinkchunk)
NuttX/nuttx/libs/libc/libc.a(lib_errno.o)
                              NuttX/nuttx/sched/libsched.a(task_create.o) (__errno)
NuttX/nuttx/libs/libc/libc.a(lib_stream.o)
                              NuttX/nuttx/sched/libsched.a(group_setupstreams.o) (lib_stream_initialize)
NuttX/nuttx/libs/libc/libc.a(lib_filesem.o)
                              NuttX/nuttx/libs/libc/libc.a(lib_stream.o) (lib_sem_initialize)
NuttX/nuttx/libs/libc/libc.a(sq_addlast.o)
                              NuttX/nuttx/sched/libsched.a(sig_releasependingsignal.o) (sq_addlast)
NuttX/nuttx/libs/libc/libc.a(sq_rem.o)
                              NuttX/nuttx/sched/libsched.a(sig_deliver.o) (sq_rem)
NuttX/nuttx/libs/libc/libc.a(sq_remfirst.o)
                              NuttX/nuttx/sched/libsched.a(sig_removependingsignal.o) (sq_remfirst)
NuttX/nuttx/libs/libc/libc.a(sq_remafter.o)
                              NuttX/nuttx/sched/libsched.a(sig_removependingsignal.o) (sq_remafter)
NuttX/nuttx/libs/libc/libc.a(dq_addlast.o)
                              NuttX/nuttx/sched/libsched.a(sched_addblocked.o) (dq_addlast)
NuttX/nuttx/libs/libc/libc.a(dq_addfirst.o)
                              NuttX/nuttx/sched/libsched.a(nx_start.o) (dq_addfirst)
NuttX/nuttx/libs/libc/libc.a(dq_rem.o)
                              NuttX/nuttx/sched/libsched.a(task_init.o) (dq_rem)
NuttX/nuttx/libs/libc/libc.a(task_startup.o)
                              NuttX/nuttx/sched/libsched.a(task_start.o) (nxtask_startup)
NuttX/nuttx/libs/libc/libc.a(sem_init.o)
                              NuttX/nuttx/sched/libsched.a(group_create.o) (nxsem_init)
NuttX/nuttx/libs/libc/libc.a(sig_addset.o)
                              NuttX/nuttx/sched/libsched.a(sig_default.o) (nxsig_addset)
NuttX/nuttx/libs/libc/libc.a(sig_delset.o)
                              NuttX/nuttx/sched/libsched.a(sig_unmaskpendingsignal.o) (nxsig_delset)
NuttX/nuttx/libs/libc/libc.a(sig_emptyset.o)
                              NuttX/nuttx/sched/libsched.a(sig_default.o) (sigemptyset)
NuttX/nuttx/libs/libc/libc.a(sig_ismember.o)
                              NuttX/nuttx/sched/libsched.a(sig_lowest.o) (nxsig_ismember)
NuttX/nuttx/libs/libc/libc.a(lib_printf.o)
                              NuttX/apps/libapps.a(cdcacm_main.c.src.NxtPX4.PX4-Autopilot.platforms.nuttx.NuttX.apps.system.cdcacm.o) (printf)
NuttX/nuttx/libs/libc/libc.a(lib_libflushall.o)
                              NuttX/nuttx/sched/libsched.a(task_exithook.o) (lib_flushall)
NuttX/nuttx/libs/libc/libc.a(lib_libfflush.o)
                              NuttX/nuttx/libs/libc/libc.a(lib_libflushall.o) (lib_fflush)
NuttX/nuttx/libs/libc/libc.a(lib_vfprintf.o)
                              NuttX/nuttx/libs/libc/libc.a(lib_printf.o) (vfprintf)
NuttX/nuttx/libs/libc/libc.a(lib_stdoutstream.o)
                              NuttX/nuttx/libs/libc/libc.a(lib_vfprintf.o) (lib_stdoutstream)
NuttX/nuttx/libs/libc/libc.a(lib_memset.o)
                              NuttX/nuttx/sched/libsched.a(nx_start.o) (memset)
NuttX/nuttx/libs/libc/libc.a(lib_strcpy.o)
                              NuttX/nuttx/sched/libsched.a(task_setup.o) (strcpy)
NuttX/nuttx/libs/libc/libc.a(lib_strlen.o)
                              NuttX/nuttx/sched/libsched.a(task_setup.o) (strlen)
NuttX/nuttx/libs/libc/libc.a(lib_strncpy.o)
                              NuttX/nuttx/sched/libsched.a(nx_start.o) (strncpy)
NuttX/nuttx/libs/libc/libc.a(lib_cfspeed.o)
                              NuttX/nuttx/arch/arm/src/libarch.a(stm32_serial.o) (cfsetspeed)
NuttX/nuttx/libs/libc/libc.a(tls_getinfo.o)
                              NuttX/nuttx/libs/libc/libc.a(lib_errno.o) (tls_get_info)
NuttX/nuttx/libs/libc/libc.a(lib_streamsem.o)
                              NuttX/nuttx/libs/libc/libc.a(lib_libflushall.o) (stream_semtake)
NuttX/nuttx/libs/libc/libc.a(lib_libnoflush.o)
                              NuttX/nuttx/libs/libc/libc.a(lib_stdoutstream.o) (lib_noflush)
NuttX/nuttx/libs/libc/libc.a(lib_libvsprintf.o)
                              NuttX/nuttx/libs/libc/libc.a(lib_vfprintf.o) (lib_vsprintf)
NuttX/nuttx/libs/libc/libc.a(lib_ultoa_invert.o)
                              NuttX/nuttx/libs/libc/libc.a(lib_libvsprintf.o) (__ultoa_invert)
NuttX/nuttx/libs/libc/libc.a(lib_dtoa_engine.o)
                              NuttX/nuttx/libs/libc/libc.a(lib_libvsprintf.o) (__dtoa_engine)
NuttX/nuttx/libs/libc/libc.a(lib_dtoa_data.o)
                              NuttX/nuttx/libs/libc/libc.a(lib_dtoa_engine.o) (g_dtoa_round)
NuttX/nuttx/libs/libc/libc.a(lib_fputc.o)
                              NuttX/nuttx/libs/libc/libc.a(lib_stdoutstream.o) (fputc)
NuttX/nuttx/libs/libc/libc.a(lib_strnlen.o)
                              NuttX/nuttx/libs/libc/libc.a(lib_libvsprintf.o) (strnlen)
NuttX/nuttx/libs/libc/libc.a(lib_libfwrite.o)
                              NuttX/nuttx/libs/libc/libc.a(lib_fputc.o) (lib_fwrite)
NuttX/nuttx/libs/libc/libc.a(lib_rdflush.o)
                              NuttX/nuttx/libs/libc/libc.a(lib_libfwrite.o) (lib_rdflush)
NuttX/nuttx/libs/libc/libc.a(lib_fseek.o)
                              NuttX/nuttx/libs/libc/libc.a(lib_rdflush.o) (fseek)
NuttX/nuttx/libs/libc/libc.a(lib_wrflush.o)
                              NuttX/nuttx/libs/libc/libc.a(lib_fseek.o) (lib_wrflush)
platforms/nuttx/src/bootloader/common/libbootloader.a(bl.c.obj)
                              boards/hkust/nxt/src/libdrivers_board.a(bootloader_main.c.obj) (sys_tick_handler)
platforms/nuttx/src/bootloader/common/lib/libbootloader_lib.a(cdcacm.c.obj)
                              platforms/nuttx/src/bootloader/common/libbootloader.a(bl.c.obj) (usb_cinit)
platforms/nuttx/src/bootloader/common/lib/libbootloader_lib.a(uart.c.obj)
                              platforms/nuttx/src/bootloader/common/libbootloader.a(bl.c.obj) (uart_cinit)
NuttX/nuttx/boards/libboards.a(boardctl.o)
                              NuttX/apps/libapps.a(cdcacm_main.c.src.NxtPX4.PX4-Autopilot.platforms.nuttx.NuttX.apps.system.cdcacm.o) (boardctl)
NuttX/nuttx/drivers/libdrivers.a(serial.o)
                              NuttX/nuttx/arch/arm/src/libarch.a(stm32_serial.o) (uart_register)
NuttX/nuttx/drivers/libdrivers.a(serial_io.o)
                              NuttX/nuttx/arch/arm/src/libarch.a(stm32_serial.o) (uart_xmitchars)
NuttX/nuttx/drivers/libdrivers.a(syslog_flush.o)
                              NuttX/nuttx/arch/arm/src/libarch.a(arm_assert.o) (syslog_flush)
NuttX/nuttx/drivers/libdrivers.a(syslog_initialize.o)
                              NuttX/nuttx/sched/libsched.a(nx_start.o) (syslog_initialize)
NuttX/nuttx/drivers/libdrivers.a(cdcacm.o)
                              NuttX/nuttx/boards/libboards.a(boardctl.o) (cdcacm_initialize)
NuttX/nuttx/drivers/libdrivers.a(cdcacm_desc.o)
                              NuttX/nuttx/drivers/libdrivers.a(cdcacm.o) (cdcacm_mkstrdesc)
NuttX/nuttx/drivers/libdrivers.a(dev_null.o)
                              NuttX/nuttx/arch/arm/src/libarch.a(arm_initialize.o) (devnull_register)
NuttX/nuttx/drivers/libdrivers.a(syslog_channel.o)
                              NuttX/nuttx/drivers/libdrivers.a(syslog_flush.o) (g_syslog_channel)
NuttX/nuttx/fs/libfs.a(fs_initialize.o)
                              NuttX/nuttx/sched/libsched.a(nx_start.o) (fs_initialize)
NuttX/nuttx/fs/libfs.a(fs_files.o)
                              NuttX/nuttx/sched/libsched.a(group_setupidlefiles.o) (files_initlist)
NuttX/nuttx/fs/libfs.a(fs_inode.o)
                              NuttX/nuttx/fs/libfs.a(fs_initialize.o) (inode_initialize)
NuttX/nuttx/fs/libfs.a(fs_inodereserve.o)
                              NuttX/nuttx/fs/libfs.a(fs_inode.o) (inode_root_reserve)
NuttX/nuttx/fs/libfs.a(fs_inodesearch.o)
                              NuttX/nuttx/fs/libfs.a(fs_inodereserve.o) (inode_nextname)
NuttX/nuttx/fs/libfs.a(fs_close.o)
                              NuttX/nuttx/fs/libfs.a(fs_files.o) (file_close)
NuttX/nuttx/fs/libfs.a(fs_dup2.o)
                              NuttX/nuttx/fs/libfs.a(fs_files.o) (file_dup2)
NuttX/nuttx/fs/libfs.a(fs_lseek.o)
                              NuttX/nuttx/libs/libc/libc.a(lib_fseek.o) (lseek)
NuttX/nuttx/fs/libfs.a(fs_open.o)
                              platforms/nuttx/src/bootloader/common/lib/libbootloader_lib.a(cdcacm.c.obj) (open)
NuttX/nuttx/fs/libfs.a(fs_read.o)
                              platforms/nuttx/src/bootloader/common/lib/libbootloader_lib.a(cdcacm.c.obj) (read)
NuttX/nuttx/fs/libfs.a(fs_write.o)
                              NuttX/nuttx/libs/libc/libc.a(lib_libfflush.o) (write)
NuttX/nuttx/fs/libfs.a(fs_fdopen.o)
                              NuttX/nuttx/sched/libsched.a(group_setupstreams.o) (fs_fdopen)
NuttX/nuttx/fs/libfs.a(fs_registerdriver.o)
                              NuttX/nuttx/drivers/libdrivers.a(serial.o) (register_driver)
NuttX/nuttx/fs/libfs.a(fs_unregisterdriver.o)
                              NuttX/nuttx/drivers/libdrivers.a(cdcacm.o) (unregister_driver)
NuttX/nuttx/fs/libfs.a(fs_inodeaddref.o)
                              NuttX/nuttx/fs/libfs.a(fs_dup2.o) (inode_addref)
NuttX/nuttx/fs/libfs.a(fs_inodefind.o)
                              NuttX/nuttx/fs/libfs.a(fs_open.o) (inode_find)
NuttX/nuttx/fs/libfs.a(fs_inoderelease.o)
                              NuttX/nuttx/fs/libfs.a(fs_close.o) (inode_release)
NuttX/nuttx/fs/libfs.a(fs_inoderemove.o)
                              NuttX/nuttx/fs/libfs.a(fs_unregisterdriver.o) (inode_remove)
NuttX/nuttx/fs/libfs.a(fs_inodefree.o)
                              NuttX/nuttx/fs/libfs.a(fs_inoderelease.o) (inode_free)
NuttX/nuttx/sched/libsched.a(clock_initialize.o)
                              NuttX/nuttx/drivers/libdrivers.a(serial.o) (g_system_timer)
NuttX/nuttx/sched/libsched.a(sched_getfiles.o)
                              NuttX/nuttx/fs/libfs.a(fs_files.o) (nxsched_get_files)
NuttX/nuttx/sched/libsched.a(sched_addreadytorun.o)
                              NuttX/nuttx/arch/arm/src/libarch.a(arm_unblocktask.o) (nxsched_add_readytorun)
NuttX/nuttx/sched/libsched.a(sched_removereadytorun.o)
                              NuttX/nuttx/arch/arm/src/libarch.a(arm_blocktask.o) (nxsched_remove_readytorun)
NuttX/nuttx/sched/libsched.a(sched_mergepending.o)
                              NuttX/nuttx/arch/arm/src/libarch.a(arm_blocktask.o) (nxsched_merge_pending)
NuttX/nuttx/sched/libsched.a(sched_getstreams.o)
                              NuttX/nuttx/libs/libc/libc.a(lib_printf.o) (nxsched_get_streams)
NuttX/nuttx/sched/libsched.a(sched_idletask.o)
                              NuttX/nuttx/mm/libmm.a(mm_sem.o) (sched_idletask)
NuttX/nuttx/sched/libsched.a(sched_self.o)
                              NuttX/nuttx/fs/libfs.a(fs_fdopen.o) (nxsched_self)
NuttX/nuttx/sched/libsched.a(sched_get_stackinfo.o)
                              NuttX/nuttx/libs/libc/libc.a(tls_getinfo.o) (nxsched_get_stackinfo)
NuttX/nuttx/sched/libsched.a(sem_wait.o)
                              NuttX/nuttx/drivers/libdrivers.a(serial.o) (nxsem_wait)
NuttX/nuttx/sched/libsched.a(sem_trywait.o)
                              NuttX/nuttx/mm/libmm.a(mm_sem.o) (sem_trywait)
NuttX/nuttx/sched/libsched.a(sem_post.o)
                              NuttX/nuttx/drivers/libdrivers.a(serial.o) (nxsem_post)
NuttX/nuttx/sched/libsched.a(sem_reset.o)
                              NuttX/nuttx/drivers/libdrivers.a(serial.o) (nxsem_reset)
NuttX/nuttx/sched/libsched.a(sig_kill.o)
                              NuttX/nuttx/drivers/libdrivers.a(serial_io.o) (nxsig_kill)
NuttX/nuttx/sched/libsched.a(sig_usleep.o)
                              NuttX/nuttx/drivers/libdrivers.a(serial.o) (nxsig_usleep)
NuttX/nuttx/sched/libsched.a(task_exit.o)
                              NuttX/nuttx/arch/arm/src/libarch.a(arm_exit.o) (nxtask_exit)
NuttX/nuttx/sched/libsched.a(task_getpid.o)
                              NuttX/nuttx/mm/libmm.a(mm_sem.o) (getpid)
NuttX/nuttx/sched/libsched.a(task_terminate.o)
                              NuttX/nuttx/sched/libsched.a(task_exit.o) (nxtask_terminate)
NuttX/nuttx/sched/libsched.a(wd_start.o)
                              NuttX/nuttx/drivers/libdrivers.a(cdcacm.o) (wd_start)
NuttX/nuttx/sched/libsched.a(sig_nanosleep.o)
                              NuttX/nuttx/sched/libsched.a(sig_usleep.o) (nxsig_nanosleep)
NuttX/nuttx/sched/libsched.a(clock_gettime.o)
                              NuttX/nuttx/sched/libsched.a(sig_nanosleep.o) (clock_gettime)
NuttX/nuttx/sched/libsched.a(clock_systime_timespec.o)
                              NuttX/nuttx/sched/libsched.a(clock_gettime.o) (clock_systime_timespec)
NuttX/nuttx/sched/libsched.a(sig_timedwait.o)
                              NuttX/nuttx/sched/libsched.a(sig_nanosleep.o) (nxsig_timedwait)
NuttX/nuttx/arch/arm/src/libarch.a(stm32_timerisr.o)
                              NuttX/nuttx/sched/libsched.a(clock_initialize.o) (up_timer_initialize)
NuttX/nuttx/mm/libmm.a(umm_realloc.o)
                              NuttX/nuttx/fs/libfs.a(fs_files.o) (realloc)
NuttX/nuttx/mm/libmm.a(mm_realloc.o)
                              NuttX/nuttx/mm/libmm.a(umm_realloc.o) (mm_realloc)
NuttX/nuttx/libs/libc/libc.a(lib_umask.o)
                              NuttX/nuttx/fs/libfs.a(fs_open.o) (getumask)
NuttX/nuttx/libs/libc/libc.a(sq_addfirst.o)
                              NuttX/nuttx/sched/libsched.a(wd_start.o) (sq_addfirst)
NuttX/nuttx/libs/libc/libc.a(sq_addafter.o)
                              NuttX/nuttx/sched/libsched.a(wd_start.o) (sq_addafter)
NuttX/nuttx/libs/libc/libc.a(clock_ticks2time.o)
                              NuttX/nuttx/sched/libsched.a(sig_nanosleep.o) (clock_ticks2time)
NuttX/nuttx/libs/libc/libc.a(clock_time2ticks.o)
                              NuttX/nuttx/sched/libsched.a(sig_nanosleep.o) (clock_time2ticks)
NuttX/nuttx/libs/libc/libc.a(clock_timespec_subtract.o)
                              NuttX/nuttx/sched/libsched.a(sig_nanosleep.o) (clock_timespec_subtract)
NuttX/nuttx/libs/libc/libc.a(sem_getvalue.o)
                              NuttX/nuttx/drivers/libdrivers.a(serial.o) (nxsem_get_value)
NuttX/nuttx/libs/libc/libc.a(sem_setprotocol.o)
                              NuttX/nuttx/drivers/libdrivers.a(serial.o) (nxsem_set_protocol)
NuttX/nuttx/libs/libc/libc.a(lib_asprintf.o)
                              NuttX/nuttx/fs/libfs.a(fs_inodesearch.o) (asprintf)
NuttX/nuttx/libs/libc/libc.a(lib_snprintf.o)
                              NuttX/nuttx/drivers/libdrivers.a(cdcacm.o) (snprintf)
NuttX/nuttx/libs/libc/libc.a(lib_vasprintf.o)
                              NuttX/nuttx/libs/libc/libc.a(lib_asprintf.o) (vasprintf)
NuttX/nuttx/libs/libc/libc.a(lib_memoutstream.o)
                              NuttX/nuttx/libs/libc/libc.a(lib_snprintf.o) (lib_memoutstream)
NuttX/nuttx/libs/libc/libc.a(lib_nulloutstream.o)
                              NuttX/nuttx/libs/libc/libc.a(lib_snprintf.o) (lib_nulloutstream)
NuttX/nuttx/libs/libc/libc.a(lib_atol.o)
                              platforms/nuttx/src/bootloader/common/lib/libbootloader_lib.a(uart.c.obj) (atol)
NuttX/nuttx/libs/libc/libc.a(lib_strtol.o)
                              NuttX/nuttx/libs/libc/libc.a(lib_atol.o) (strtol)
NuttX/nuttx/libs/libc/libc.a(lib_strtoul.o)
                              NuttX/nuttx/libs/libc/libc.a(lib_strtol.o) (strtoul)
NuttX/nuttx/libs/libc/libc.a(lib_checkbase.o)
                              NuttX/nuttx/libs/libc/libc.a(lib_strtoul.o) (lib_checkbase)
NuttX/nuttx/libs/libc/libc.a(lib_isbasedigit.o)
                              NuttX/nuttx/libs/libc/libc.a(lib_strtoul.o) (lib_isbasedigit)
NuttX/nuttx/libs/libc/libc.a(lib_skipspace.o)
                              NuttX/nuttx/libs/libc/libc.a(lib_strtol.o) (lib_skipspace)
NuttX/nuttx/libs/libc/libc.a(lib_strdup.o)
                              platforms/nuttx/src/bootloader/common/lib/libbootloader_lib.a(cdcacm.c.obj) (strdup)
NuttX/nuttx/libs/libc/libc.a(lib_strtok.o)
                              platforms/nuttx/src/bootloader/common/lib/libbootloader_lib.a(cdcacm.c.obj) (strtok)
NuttX/nuttx/libs/libc/libc.a(lib_strtokr.o)
                              NuttX/nuttx/libs/libc/libc.a(lib_strtok.o) (strtok_r)
NuttX/nuttx/libs/libc/libc.a(lib_strchr.o)
                              NuttX/nuttx/libs/libc/libc.a(lib_strtokr.o) (strchr)
NuttX/nuttx/libs/libc/libc.a(lib_tcgetattr.o)
                              platforms/nuttx/src/bootloader/common/lib/libbootloader_lib.a(uart.c.obj) (tcgetattr)
NuttX/nuttx/libs/libc/libc.a(lib_tcsetattr.o)
                              platforms/nuttx/src/bootloader/common/lib/libbootloader_lib.a(uart.c.obj) (tcsetattr)
NuttX/nuttx/libs/libc/libc.a(lib_calendar2utc.o)
                              NuttX/nuttx/sched/libsched.a(clock_initialize.o) (clock_calendar2utc)
NuttX/nuttx/libs/libc/libc.a(lib_daysbeforemonth.o)
                              NuttX/nuttx/libs/libc/libc.a(lib_calendar2utc.o) (clock_daysbeforemonth)
NuttX/nuttx/libs/libc/libc.a(lib_isleapyear.o)
                              NuttX/nuttx/libs/libc/libc.a(lib_calendar2utc.o) (clock_isleapyear)
NuttX/nuttx/libs/libc/libc.a(task_getinfo.o)
                              NuttX/nuttx/libs/libc/libc.a(lib_umask.o) (task_get_info)
NuttX/nuttx/libs/libc/libc.a(lib_isspace.o)
                              NuttX/nuttx/libs/libc/libc.a(lib_skipspace.o) (isspace)
NuttX/nuttx/libs/libc/libc.a(lib_tcflush.o)
                              NuttX/nuttx/libs/libc/libc.a(lib_tcsetattr.o) (tcflush)
NuttX/nuttx/drivers/libdrivers.a(tcdrain.o)
                              NuttX/nuttx/libs/libc/libc.a(lib_tcsetattr.o) (tcdrain)
NuttX/nuttx/fs/libfs.a(fs_ioctl.o)
                              NuttX/nuttx/libs/libc/libc.a(lib_tcgetattr.o) (ioctl)
NuttX/nuttx/fs/libfs.a(fs_inodegetpath.o)
                              NuttX/nuttx/fs/libfs.a(fs_ioctl.o) (inode_getpath)
NuttX/nuttx/fs/libfs.a(fs_fcntl.o)
                              NuttX/nuttx/fs/libfs.a(fs_ioctl.o) (file_fcntl)
NuttX/nuttx/fs/libfs.a(fs_dup.o)
                              NuttX/nuttx/fs/libfs.a(fs_fcntl.o) (file_dup)
NuttX/nuttx/sched/libsched.a(sched_processtimer.o)
                              NuttX/nuttx/arch/arm/src/libarch.a(stm32_timerisr.o) (nxsched_process_timer)
NuttX/nuttx/libs/libc/libc.a(lib_strcat.o)
                              NuttX/nuttx/fs/libfs.a(fs_inodegetpath.o) (strcat)
/opt/gcc/bin/../lib/gcc/arm-none-eabi/9.3.1/thumb/v7e-m+dp/hard/libgcc.a(_aeabi_ldivmod.o)
                              NuttX/nuttx/libs/libc/libc.a(lib_dtoa_engine.o) (__aeabi_ldivmod)
/opt/gcc/bin/../lib/gcc/arm-none-eabi/9.3.1/thumb/v7e-m+dp/hard/libgcc.a(_aeabi_uldivmod.o)
                              NuttX/nuttx/libs/libc/libc.a(lib_ultoa_invert.o) (__aeabi_uldivmod)
/opt/gcc/bin/../lib/gcc/arm-none-eabi/9.3.1/thumb/v7e-m+dp/hard/libgcc.a(_fixunsdfdi.o)
                              NuttX/nuttx/libs/libc/libc.a(lib_dtoa_engine.o) (__aeabi_d2ulz)
/opt/gcc/bin/../lib/gcc/arm-none-eabi/9.3.1/thumb/v7e-m+dp/hard/libgcc.a(_udivmoddi4.o)
                              /opt/gcc/bin/../lib/gcc/arm-none-eabi/9.3.1/thumb/v7e-m+dp/hard/libgcc.a(_aeabi_ldivmod.o) (__udivmoddi4)
/opt/gcc/bin/../lib/gcc/arm-none-eabi/9.3.1/thumb/v7e-m+dp/hard/libgcc.a(_dvmd_tls.o)
                              /opt/gcc/bin/../lib/gcc/arm-none-eabi/9.3.1/thumb/v7e-m+dp/hard/libgcc.a(_aeabi_ldivmod.o) (__aeabi_ldiv0)
platforms/nuttx/src/bootloader/stm/stm32h7/arch_bootloader/libarch_bootloader.a(main.c.obj)
                              platforms/nuttx/src/bootloader/common/libbootloader.a(bl.c.obj) (board_get_devices)
platforms/nuttx/src/bootloader/stm/stm32h7/arch_bootloader/libarch_bootloader.a(systick.c.obj)
                              platforms/nuttx/src/bootloader/stm/stm32h7/arch_bootloader/libarch_bootloader.a(main.c.obj) (systick_set_reload)
platforms/nuttx/src/px4/stm/stm32h7/board_reset/libarch_board_reset.a(board_reset.cpp.obj)
                              NuttX/nuttx/arch/arm/src/libarch.a(arm_assert.o) (board_reset)
NuttX/nuttx/arch/arm/src/libarch.a(arm_systemreset.o)
                              platforms/nuttx/src/px4/stm/stm32h7/board_reset/libarch_board_reset.a(board_reset.cpp.obj) (up_systemreset)
NuttX/nuttx/arch/arm/src/libarch.a(stm32_flash.o)
                              platforms/nuttx/src/bootloader/stm/stm32h7/arch_bootloader/libarch_bootloader.a(main.c.obj) (stm32h7_flash_unlock)
platforms/nuttx/src/bootloader/common/lib/libbootloader_lib.a(flash_cache.c.obj)
                              platforms/nuttx/src/bootloader/stm/stm32h7/arch_bootloader/libarch_bootloader.a(main.c.obj) (fc_reset)

Discarded input sections

 .text          0x0000000000000000        0x0 platforms/nuttx/CMakeFiles/px4.dir/__/common/empty.c.obj
 .data          0x0000000000000000        0x0 platforms/nuttx/CMakeFiles/px4.dir/__/common/empty.c.obj
 .bss           0x0000000000000000        0x0 platforms/nuttx/CMakeFiles/px4.dir/__/common/empty.c.obj
 .debug_info    0x0000000000000000       0x6b platforms/nuttx/CMakeFiles/px4.dir/__/common/empty.c.obj
 .debug_abbrev  0x0000000000000000       0x26 platforms/nuttx/CMakeFiles/px4.dir/__/common/empty.c.obj
 .debug_aranges
                0x0000000000000000       0x18 platforms/nuttx/CMakeFiles/px4.dir/__/common/empty.c.obj
 .debug_line    0x0000000000000000       0x1d platforms/nuttx/CMakeFiles/px4.dir/__/common/empty.c.obj
 .debug_str     0x0000000000000000      0x23d platforms/nuttx/CMakeFiles/px4.dir/__/common/empty.c.obj
 .comment       0x0000000000000000       0x4d platforms/nuttx/CMakeFiles/px4.dir/__/common/empty.c.obj
 .ARM.attributes
                0x0000000000000000       0x37 platforms/nuttx/CMakeFiles/px4.dir/__/common/empty.c.obj
 .text          0x0000000000000000        0x0 NuttX/nuttx/arch/arm/src/libarch.a(arm_vectors.o)
 .data          0x0000000000000000        0x0 NuttX/nuttx/arch/arm/src/libarch.a(arm_vectors.o)
 .bss           0x0000000000000000        0x0 NuttX/nuttx/arch/arm/src/libarch.a(arm_vectors.o)
 .data          0x0000000000000000        0x0 NuttX/nuttx/arch/arm/src/libarch.a(arm_exception.o)
 .text          0x0000000000000000        0x0 NuttX/nuttx/arch/arm/src/libarch.a(stm32_start.o)
 .data          0x0000000000000000        0x0 NuttX/nuttx/arch/arm/src/libarch.a(stm32_start.o)
 .bss           0x0000000000000000        0x0 NuttX/nuttx/arch/arm/src/libarch.a(stm32_start.o)
 .text          0x0000000000000000        0x0 NuttX/nuttx/arch/arm/src/libarch.a(stm32_rcc.o)
 .data          0x0000000000000000        0x0 NuttX/nuttx/arch/arm/src/libarch.a(stm32_rcc.o)
 .bss           0x0000000000000000        0x0 NuttX/nuttx/arch/arm/src/libarch.a(stm32_rcc.o)
 .text          0x0000000000000000        0x0 NuttX/nuttx/arch/arm/src/libarch.a(stm32_lowputc.o)
 .data          0x0000000000000000        0x0 NuttX/nuttx/arch/arm/src/libarch.a(stm32_lowputc.o)
 .bss           0x0000000000000000        0x0 NuttX/nuttx/arch/arm/src/libarch.a(stm32_lowputc.o)
 .text.arm_lowputc
                0x0000000000000000        0x2 NuttX/nuttx/arch/arm/src/libarch.a(stm32_lowputc.o)
 .text          0x0000000000000000        0x0 NuttX/nuttx/arch/arm/src/libarch.a(stm32_pwr.o)
 .data          0x0000000000000000        0x0 NuttX/nuttx/arch/arm/src/libarch.a(stm32_pwr.o)
 .bss           0x0000000000000000        0x0 NuttX/nuttx/arch/arm/src/libarch.a(stm32_pwr.o)
 .text.stm32_pwr_setpvd
                0x0000000000000000       0x18 NuttX/nuttx/arch/arm/src/libarch.a(stm32_pwr.o)
 .text.stm32_pwr_enablepvd
                0x0000000000000000       0x10 NuttX/nuttx/arch/arm/src/libarch.a(stm32_pwr.o)
 .text.stm32_pwr_disablepvd
                0x0000000000000000       0x10 NuttX/nuttx/arch/arm/src/libarch.a(stm32_pwr.o)
 .text.stm32_pwr_enablebreg
                0x0000000000000000       0x50 NuttX/nuttx/arch/arm/src/libarch.a(stm32_pwr.o)
 .text.stm32_pwr_configurewkup
                0x0000000000000000       0x74 NuttX/nuttx/arch/arm/src/libarch.a(stm32_pwr.o)
 .text.stm32_pwr_setvbatcharge
                0x0000000000000000       0x44 NuttX/nuttx/arch/arm/src/libarch.a(stm32_pwr.o)
 .text          0x0000000000000000        0x0 NuttX/nuttx/arch/arm/src/libarch.a(arm_doirq.o)
 .data          0x0000000000000000        0x0 NuttX/nuttx/arch/arm/src/libarch.a(arm_doirq.o)
 .bss           0x0000000000000000        0x0 NuttX/nuttx/arch/arm/src/libarch.a(arm_doirq.o)
 .text          0x0000000000000000        0x0 NuttX/nuttx/arch/arm/src/libarch.a(arm_modifyreg32.o)
 .data          0x0000000000000000        0x0 NuttX/nuttx/arch/arm/src/libarch.a(arm_modifyreg32.o)
 .bss           0x0000000000000000        0x0 NuttX/nuttx/arch/arm/src/libarch.a(arm_modifyreg32.o)
 .text          0x0000000000000000        0x0 NuttX/nuttx/arch/arm/src/libarch.a(arm_udelay.o)
 .data          0x0000000000000000        0x0 NuttX/nuttx/arch/arm/src/libarch.a(arm_udelay.o)
 .bss           0x0000000000000000        0x0 NuttX/nuttx/arch/arm/src/libarch.a(arm_udelay.o)
 .text          0x0000000000000000        0x0 NuttX/nuttx/arch/arm/src/libarch.a(arm_cache.o)
 .data          0x0000000000000000        0x0 NuttX/nuttx/arch/arm/src/libarch.a(arm_cache.o)
 .bss           0x0000000000000000        0x0 NuttX/nuttx/arch/arm/src/libarch.a(arm_cache.o)
 .text.up_disable_icache
                0x0000000000000000       0x2c NuttX/nuttx/arch/arm/src/libarch.a(arm_cache.o)
 .text.up_invalidate_icache_all
                0x0000000000000000       0x1c NuttX/nuttx/arch/arm/src/libarch.a(arm_cache.o)
 .text.up_coherent_dcache
                0x0000000000000000        0x8 NuttX/nuttx/arch/arm/src/libarch.a(arm_cache.o)
 .text          0x0000000000000000        0x0 NuttX/nuttx/arch/arm/src/libarch.a(stm32_irq.o)
 .data          0x0000000000000000        0x0 NuttX/nuttx/arch/arm/src/libarch.a(stm32_irq.o)
 .bss           0x0000000000000000        0x0 NuttX/nuttx/arch/arm/src/libarch.a(stm32_irq.o)
 .text          0x0000000000000000        0x0 NuttX/nuttx/arch/arm/src/libarch.a(arm_hardfault.o)
 .data          0x0000000000000000        0x0 NuttX/nuttx/arch/arm/src/libarch.a(arm_hardfault.o)
 .bss           0x0000000000000000        0x0 NuttX/nuttx/arch/arm/src/libarch.a(arm_hardfault.o)
 .text          0x0000000000000000        0x0 NuttX/nuttx/arch/arm/src/libarch.a(arm_svcall.o)
 .data          0x0000000000000000        0x0 NuttX/nuttx/arch/arm/src/libarch.a(arm_svcall.o)
 .bss           0x0000000000000000        0x0 NuttX/nuttx/arch/arm/src/libarch.a(arm_svcall.o)
 .data          0x0000000000000000        0x0 NuttX/nuttx/libs/libc/libc.a(arch_memcpy.o)
 .bss           0x0000000000000000        0x0 NuttX/nuttx/libs/libc/libc.a(arch_memcpy.o)
 .text          0x0000000000000000        0x0 NuttX/nuttx/libs/libc/libc.a(lib_assert.o)
 .data          0x0000000000000000        0x0 NuttX/nuttx/libs/libc/libc.a(lib_assert.o)
 .bss           0x0000000000000000        0x0 NuttX/nuttx/libs/libc/libc.a(lib_assert.o)
 .text          0x0000000000000000        0x0 NuttX/nuttx/libs/libc/libc.a(lib_abort.o)
 .data          0x0000000000000000        0x0 NuttX/nuttx/libs/libc/libc.a(lib_abort.o)
 .bss           0x0000000000000000        0x0 NuttX/nuttx/libs/libc/libc.a(lib_abort.o)
 .text          0x0000000000000000        0x0 boards/hkust/nxt/src/libdrivers_board.a(bootloader_main.c.obj)
 .data          0x0000000000000000        0x0 boards/hkust/nxt/src/libdrivers_board.a(bootloader_main.c.obj)
 .bss           0x0000000000000000        0x0 boards/hkust/nxt/src/libdrivers_board.a(bootloader_main.c.obj)
 .text          0x0000000000000000        0x0 boards/hkust/nxt/src/libdrivers_board.a(usb.c.obj)
 .data          0x0000000000000000        0x0 boards/hkust/nxt/src/libdrivers_board.a(usb.c.obj)
 .bss           0x0000000000000000        0x0 boards/hkust/nxt/src/libdrivers_board.a(usb.c.obj)
 .text          0x0000000000000000        0x0 NuttX/nuttx/sched/libsched.a(nx_start.o)
 .data          0x0000000000000000        0x0 NuttX/nuttx/sched/libsched.a(nx_start.o)
 .bss           0x0000000000000000        0x0 NuttX/nuttx/sched/libsched.a(nx_start.o)
 .text          0x0000000000000000        0x0 NuttX/nuttx/sched/libsched.a(nx_bringup.o)
 .data          0x0000000000000000        0x0 NuttX/nuttx/sched/libsched.a(nx_bringup.o)
 .bss           0x0000000000000000        0x0 NuttX/nuttx/sched/libsched.a(nx_bringup.o)
 .text          0x0000000000000000        0x0 NuttX/nuttx/sched/libsched.a(irq_attach.o)
 .data          0x0000000000000000        0x0 NuttX/nuttx/sched/libsched.a(irq_attach.o)
 .bss           0x0000000000000000        0x0 NuttX/nuttx/sched/libsched.a(irq_attach.o)
 .text          0x0000000000000000        0x0 NuttX/nuttx/sched/libsched.a(irq_dispatch.o)
 .data          0x0000000000000000        0x0 NuttX/nuttx/sched/libsched.a(irq_dispatch.o)
 .bss           0x0000000000000000        0x0 NuttX/nuttx/sched/libsched.a(irq_dispatch.o)
 .text          0x0000000000000000        0x0 NuttX/nuttx/sched/libsched.a(irq_unexpectedisr.o)
 .data          0x0000000000000000        0x0 NuttX/nuttx/sched/libsched.a(irq_unexpectedisr.o)
 .bss           0x0000000000000000        0x0 NuttX/nuttx/sched/libsched.a(irq_unexpectedisr.o)
 .text          0x0000000000000000        0x0 NuttX/nuttx/sched/libsched.a(sched_lock.o)
 .data          0x0000000000000000        0x0 NuttX/nuttx/sched/libsched.a(sched_lock.o)
 .bss           0x0000000000000000        0x0 NuttX/nuttx/sched/libsched.a(sched_lock.o)
 .text          0x0000000000000000        0x0 NuttX/nuttx/sched/libsched.a(sched_unlock.o)
 .data          0x0000000000000000        0x0 NuttX/nuttx/sched/libsched.a(sched_unlock.o)
 .bss           0x0000000000000000        0x0 NuttX/nuttx/sched/libsched.a(sched_unlock.o)
 .text          0x0000000000000000        0x0 NuttX/nuttx/sched/libsched.a(task_create.o)
 .data          0x0000000000000000        0x0 NuttX/nuttx/sched/libsched.a(task_create.o)
 .bss           0x0000000000000000        0x0 NuttX/nuttx/sched/libsched.a(task_create.o)
 .text.task_create
                0x0000000000000000       0x20 NuttX/nuttx/sched/libsched.a(task_create.o)
 .text          0x0000000000000000        0x0 NuttX/nuttx/sched/libsched.a(task_init.o)
 .data          0x0000000000000000        0x0 NuttX/nuttx/sched/libsched.a(task_init.o)
 .bss           0x0000000000000000        0x0 NuttX/nuttx/sched/libsched.a(task_init.o)
 .text.nxtask_uninit
                0x0000000000000000       0x20 NuttX/nuttx/sched/libsched.a(task_init.o)
 .text          0x0000000000000000        0x0 NuttX/nuttx/sched/libsched.a(task_setup.o)
 .data          0x0000000000000000        0x0 NuttX/nuttx/sched/libsched.a(task_setup.o)
 .bss           0x0000000000000000        0x0 NuttX/nuttx/sched/libsched.a(task_setup.o)
 .text          0x0000000000000000        0x0 NuttX/nuttx/sched/libsched.a(task_activate.o)
 .data          0x0000000000000000        0x0 NuttX/nuttx/sched/libsched.a(task_activate.o)
 .bss           0x0000000000000000        0x0 NuttX/nuttx/sched/libsched.a(task_activate.o)
 .text          0x0000000000000000        0x0 NuttX/nuttx/sched/libsched.a(task_start.o)
 .data          0x0000000000000000        0x0 NuttX/nuttx/sched/libsched.a(task_start.o)
 .bss           0x0000000000000000        0x0 NuttX/nuttx/sched/libsched.a(task_start.o)
 .text          0x0000000000000000        0x0 NuttX/nuttx/sched/libsched.a(exit.o)
 .data          0x0000000000000000        0x0 NuttX/nuttx/sched/libsched.a(exit.o)
 .bss           0x0000000000000000        0x0 NuttX/nuttx/sched/libsched.a(exit.o)
 .text._exit    0x0000000000000000        0x6 NuttX/nuttx/sched/libsched.a(exit.o)
 .text          0x0000000000000000        0x0 NuttX/nuttx/sched/libsched.a(group_create.o)
 .data          0x0000000000000000        0x0 NuttX/nuttx/sched/libsched.a(group_create.o)
 .bss           0x0000000000000000        0x0 NuttX/nuttx/sched/libsched.a(group_create.o)
 .text          0x0000000000000000        0x0 NuttX/nuttx/sched/libsched.a(group_leave.o)
 .data          0x0000000000000000        0x0 NuttX/nuttx/sched/libsched.a(group_leave.o)
 .bss           0x0000000000000000        0x0 NuttX/nuttx/sched/libsched.a(group_leave.o)
 .text          0x0000000000000000        0x0 NuttX/nuttx/sched/libsched.a(group_setupidlefiles.o)
 .data          0x0000000000000000        0x0 NuttX/nuttx/sched/libsched.a(group_setupidlefiles.o)
 .bss           0x0000000000000000        0x0 NuttX/nuttx/sched/libsched.a(group_setupidlefiles.o)
 .text          0x0000000000000000        0x0 NuttX/nuttx/sched/libsched.a(group_setuptaskfiles.o)
 .data          0x0000000000000000        0x0 NuttX/nuttx/sched/libsched.a(group_setuptaskfiles.o)
 .bss           0x0000000000000000        0x0 NuttX/nuttx/sched/libsched.a(group_setuptaskfiles.o)
 .text          0x0000000000000000        0x0 NuttX/nuttx/sched/libsched.a(irq_initialize.o)
 .data          0x0000000000000000        0x0 NuttX/nuttx/sched/libsched.a(irq_initialize.o)
 .bss           0x0000000000000000        0x0 NuttX/nuttx/sched/libsched.a(irq_initialize.o)
 .text          0x0000000000000000        0x0 NuttX/nuttx/sched/libsched.a(sched_releasetcb.o)
 .data          0x0000000000000000        0x0 NuttX/nuttx/sched/libsched.a(sched_releasetcb.o)
 .bss           0x0000000000000000        0x0 NuttX/nuttx/sched/libsched.a(sched_releasetcb.o)
 .text          0x0000000000000000        0x0 NuttX/nuttx/sched/libsched.a(sem_destroy.o)
 .data          0x0000000000000000        0x0 NuttX/nuttx/sched/libsched.a(sem_destroy.o)
 .bss           0x0000000000000000        0x0 NuttX/nuttx/sched/libsched.a(sem_destroy.o)
 .text          0x0000000000000000        0x0 NuttX/nuttx/sched/libsched.a(sig_procmask.o)
 .data          0x0000000000000000        0x0 NuttX/nuttx/sched/libsched.a(sig_procmask.o)
 .bss           0x0000000000000000        0x0 NuttX/nuttx/sched/libsched.a(sig_procmask.o)
 .text.sigprocmask
                0x0000000000000000       0x1a NuttX/nuttx/sched/libsched.a(sig_procmask.o)
 .text          0x0000000000000000        0x0 NuttX/nuttx/sched/libsched.a(sig_unmaskpendingsignal.o)
 .data          0x0000000000000000        0x0 NuttX/nuttx/sched/libsched.a(sig_unmaskpendingsignal.o)
 .bss           0x0000000000000000        0x0 NuttX/nuttx/sched/libsched.a(sig_unmaskpendingsignal.o)
 .text          0x0000000000000000        0x0 NuttX/nuttx/sched/libsched.a(sig_removependingsignal.o)
 .data          0x0000000000000000        0x0 NuttX/nuttx/sched/libsched.a(sig_removependingsignal.o)
 .bss           0x0000000000000000        0x0 NuttX/nuttx/sched/libsched.a(sig_removependingsignal.o)
 .text          0x0000000000000000        0x0 NuttX/nuttx/sched/libsched.a(sig_releasependingsignal.o)
 .data          0x0000000000000000        0x0 NuttX/nuttx/sched/libsched.a(sig_releasependingsignal.o)
 .bss           0x0000000000000000        0x0 NuttX/nuttx/sched/libsched.a(sig_releasependingsignal.o)
 .text          0x0000000000000000        0x0 NuttX/nuttx/sched/libsched.a(sig_lowest.o)
 .data          0x0000000000000000        0x0 NuttX/nuttx/sched/libsched.a(sig_lowest.o)
 .bss           0x0000000000000000        0x0 NuttX/nuttx/sched/libsched.a(sig_lowest.o)
 .text          0x0000000000000000        0x0 NuttX/nuttx/sched/libsched.a(sig_cleanup.o)
 .data          0x0000000000000000        0x0 NuttX/nuttx/sched/libsched.a(sig_cleanup.o)
 .bss           0x0000000000000000        0x0 NuttX/nuttx/sched/libsched.a(sig_cleanup.o)
 .text          0x0000000000000000        0x0 NuttX/nuttx/sched/libsched.a(sig_dispatch.o)
 .data          0x0000000000000000        0x0 NuttX/nuttx/sched/libsched.a(sig_dispatch.o)
 .bss           0x0000000000000000        0x0 NuttX/nuttx/sched/libsched.a(sig_dispatch.o)
 .text          0x0000000000000000        0x0 NuttX/nuttx/sched/libsched.a(sig_deliver.o)
 .data          0x0000000000000000        0x0 NuttX/nuttx/sched/libsched.a(sig_deliver.o)
 .bss           0x0000000000000000        0x0 NuttX/nuttx/sched/libsched.a(sig_deliver.o)
 .text          0x0000000000000000        0x0 NuttX/nuttx/sched/libsched.a(sig_default.o)
 .data          0x0000000000000000        0x0 NuttX/nuttx/sched/libsched.a(sig_default.o)
 .bss           0x0000000000000000        0x0 NuttX/nuttx/sched/libsched.a(sig_default.o)
 .text          0x0000000000000000        0x0 NuttX/nuttx/sched/libsched.a(task_exithook.o)
 .data          0x0000000000000000        0x0 NuttX/nuttx/sched/libsched.a(task_exithook.o)
 .bss           0x0000000000000000        0x0 NuttX/nuttx/sched/libsched.a(task_exithook.o)
 .text          0x0000000000000000        0x0 NuttX/nuttx/sched/libsched.a(task_recover.o)
 .data          0x0000000000000000        0x0 NuttX/nuttx/sched/libsched.a(task_recover.o)
 .bss           0x0000000000000000        0x0 NuttX/nuttx/sched/libsched.a(task_recover.o)
 .text          0x0000000000000000        0x0 NuttX/nuttx/sched/libsched.a(task_cancelpt.o)
 .data          0x0000000000000000        0x0 NuttX/nuttx/sched/libsched.a(task_cancelpt.o)
 .bss           0x0000000000000000        0x0 NuttX/nuttx/sched/libsched.a(task_cancelpt.o)
 .text          0x0000000000000000        0x0 NuttX/nuttx/sched/libsched.a(wd_recover.o)
 .data          0x0000000000000000        0x0 NuttX/nuttx/sched/libsched.a(wd_recover.o)
 .bss           0x0000000000000000        0x0 NuttX/nuttx/sched/libsched.a(wd_recover.o)
 .text          0x0000000000000000        0x0 NuttX/nuttx/sched/libsched.a(group_setupstreams.o)
 .data          0x0000000000000000        0x0 NuttX/nuttx/sched/libsched.a(group_setupstreams.o)
 .bss           0x0000000000000000        0x0 NuttX/nuttx/sched/libsched.a(group_setupstreams.o)
 .text          0x0000000000000000        0x0 NuttX/nuttx/sched/libsched.a(sched_gettcb.o)
 .data          0x0000000000000000        0x0 NuttX/nuttx/sched/libsched.a(sched_gettcb.o)
 .bss           0x0000000000000000        0x0 NuttX/nuttx/sched/libsched.a(sched_gettcb.o)
 .text          0x0000000000000000        0x0 NuttX/nuttx/sched/libsched.a(sched_suspend.o)
 .data          0x0000000000000000        0x0 NuttX/nuttx/sched/libsched.a(sched_suspend.o)
 .bss           0x0000000000000000        0x0 NuttX/nuttx/sched/libsched.a(sched_suspend.o)
 .text          0x0000000000000000        0x0 NuttX/nuttx/sched/libsched.a(sched_continue.o)
 .data          0x0000000000000000        0x0 NuttX/nuttx/sched/libsched.a(sched_continue.o)
 .bss           0x0000000000000000        0x0 NuttX/nuttx/sched/libsched.a(sched_continue.o)
 .text          0x0000000000000000        0x0 NuttX/nuttx/sched/libsched.a(sem_recover.o)
 .data          0x0000000000000000        0x0 NuttX/nuttx/sched/libsched.a(sem_recover.o)
 .bss           0x0000000000000000        0x0 NuttX/nuttx/sched/libsched.a(sem_recover.o)
 .text          0x0000000000000000        0x0 NuttX/nuttx/sched/libsched.a(sem_waitirq.o)
 .data          0x0000000000000000        0x0 NuttX/nuttx/sched/libsched.a(sem_waitirq.o)
 .bss           0x0000000000000000        0x0 NuttX/nuttx/sched/libsched.a(sem_waitirq.o)
 .text          0x0000000000000000        0x0 NuttX/nuttx/sched/libsched.a(sig_initialize.o)
 .data          0x0000000000000000        0x0 NuttX/nuttx/sched/libsched.a(sig_initialize.o)
 .bss           0x0000000000000000        0x0 NuttX/nuttx/sched/libsched.a(sig_initialize.o)
 .text          0x0000000000000000        0x0 NuttX/nuttx/sched/libsched.a(sig_action.o)
 .data          0x0000000000000000        0x0 NuttX/nuttx/sched/libsched.a(sig_action.o)
 .bss           0x0000000000000000        0x0 NuttX/nuttx/sched/libsched.a(sig_action.o)
 .text.sigaction
                0x0000000000000000       0x1e NuttX/nuttx/sched/libsched.a(sig_action.o)
 .text          0x0000000000000000        0x0 NuttX/nuttx/sched/libsched.a(sig_pending.o)
 .data          0x0000000000000000        0x0 NuttX/nuttx/sched/libsched.a(sig_pending.o)
 .bss           0x0000000000000000        0x0 NuttX/nuttx/sched/libsched.a(sig_pending.o)
 .text.sigpending
                0x0000000000000000       0x20 NuttX/nuttx/sched/libsched.a(sig_pending.o)
 .text          0x0000000000000000        0x0 NuttX/nuttx/sched/libsched.a(sig_findaction.o)
 .data          0x0000000000000000        0x0 NuttX/nuttx/sched/libsched.a(sig_findaction.o)
 .bss           0x0000000000000000        0x0 NuttX/nuttx/sched/libsched.a(sig_findaction.o)
 .text          0x0000000000000000        0x0 NuttX/nuttx/sched/libsched.a(sig_allocpendingsigaction.o)
 .data          0x0000000000000000        0x0 NuttX/nuttx/sched/libsched.a(sig_allocpendingsigaction.o)
 .bss           0x0000000000000000        0x0 NuttX/nuttx/sched/libsched.a(sig_allocpendingsigaction.o)
 .text          0x0000000000000000        0x0 NuttX/nuttx/sched/libsched.a(sig_releasependingsigaction.o)
 .data          0x0000000000000000        0x0 NuttX/nuttx/sched/libsched.a(sig_releasependingsigaction.o)
 .bss           0x0000000000000000        0x0 NuttX/nuttx/sched/libsched.a(sig_releasependingsigaction.o)
 .text          0x0000000000000000        0x0 NuttX/nuttx/sched/libsched.a(wd_cancel.o)
 .data          0x0000000000000000        0x0 NuttX/nuttx/sched/libsched.a(wd_cancel.o)
 .bss           0x0000000000000000        0x0 NuttX/nuttx/sched/libsched.a(wd_cancel.o)
 .text          0x0000000000000000        0x0 NuttX/nuttx/sched/libsched.a(sched_addblocked.o)
 .data          0x0000000000000000        0x0 NuttX/nuttx/sched/libsched.a(sched_addblocked.o)
 .bss           0x0000000000000000        0x0 NuttX/nuttx/sched/libsched.a(sched_addblocked.o)
 .text          0x0000000000000000        0x0 NuttX/nuttx/sched/libsched.a(sched_removeblocked.o)
 .data          0x0000000000000000        0x0 NuttX/nuttx/sched/libsched.a(sched_removeblocked.o)
 .bss           0x0000000000000000        0x0 NuttX/nuttx/sched/libsched.a(sched_removeblocked.o)
 .text          0x0000000000000000        0x0 NuttX/nuttx/sched/libsched.a(wd_initialize.o)
 .data          0x0000000000000000        0x0 NuttX/nuttx/sched/libsched.a(wd_initialize.o)
 .bss           0x0000000000000000        0x0 NuttX/nuttx/sched/libsched.a(wd_initialize.o)
 .text          0x0000000000000000        0x0 NuttX/nuttx/sched/libsched.a(sched_addprioritized.o)
 .data          0x0000000000000000        0x0 NuttX/nuttx/sched/libsched.a(sched_addprioritized.o)
 .bss           0x0000000000000000        0x0 NuttX/nuttx/sched/libsched.a(sched_addprioritized.o)
 .text          0x0000000000000000        0x0 NuttX/apps/libapps.a(cdcacm_main.c.src.NxtPX4.PX4-Autopilot.platforms.nuttx.NuttX.apps.system.cdcacm.o)
 .data          0x0000000000000000        0x0 NuttX/apps/libapps.a(cdcacm_main.c.src.NxtPX4.PX4-Autopilot.platforms.nuttx.NuttX.apps.system.cdcacm.o)
 .bss           0x0000000000000000        0x0 NuttX/apps/libapps.a(cdcacm_main.c.src.NxtPX4.PX4-Autopilot.platforms.nuttx.NuttX.apps.system.cdcacm.o)
 .rodata.serdis_main.str1.1
                0x0000000000000000       0x34 NuttX/apps/libapps.a(cdcacm_main.c.src.NxtPX4.PX4-Autopilot.platforms.nuttx.NuttX.apps.system.cdcacm.o)
 .text.serdis_main
                0x0000000000000000       0x48 NuttX/apps/libapps.a(cdcacm_main.c.src.NxtPX4.PX4-Autopilot.platforms.nuttx.NuttX.apps.system.cdcacm.o)
 .text          0x0000000000000000        0x0 NuttX/nuttx/arch/arm/src/libarch.a(stm32_allocateheap.o)
 .data          0x0000000000000000        0x0 NuttX/nuttx/arch/arm/src/libarch.a(stm32_allocateheap.o)
 .bss           0x0000000000000000        0x0 NuttX/nuttx/arch/arm/src/libarch.a(stm32_allocateheap.o)
 .text          0x0000000000000000        0x0 NuttX/nuttx/arch/arm/src/libarch.a(stm32_gpio.o)
 .data          0x0000000000000000        0x0 NuttX/nuttx/arch/arm/src/libarch.a(stm32_gpio.o)
 .bss           0x0000000000000000        0x0 NuttX/nuttx/arch/arm/src/libarch.a(stm32_gpio.o)
 .text.stm32_gpioinit
                0x0000000000000000        0x2 NuttX/nuttx/arch/arm/src/libarch.a(stm32_gpio.o)
 .text          0x0000000000000000        0x0 NuttX/nuttx/arch/arm/src/libarch.a(arm_assert.o)
 .data          0x0000000000000000        0x0 NuttX/nuttx/arch/arm/src/libarch.a(arm_assert.o)
 .bss           0x0000000000000000        0x0 NuttX/nuttx/arch/arm/src/libarch.a(arm_assert.o)
 .text          0x0000000000000000        0x0 NuttX/nuttx/arch/arm/src/libarch.a(arm_blocktask.o)
 .data          0x0000000000000000        0x0 NuttX/nuttx/arch/arm/src/libarch.a(arm_blocktask.o)
 .bss           0x0000000000000000        0x0 NuttX/nuttx/arch/arm/src/libarch.a(arm_blocktask.o)
 .text          0x0000000000000000        0x0 NuttX/nuttx/arch/arm/src/libarch.a(arm_copyfullstate.o)
 .data          0x0000000000000000        0x0 NuttX/nuttx/arch/arm/src/libarch.a(arm_copyfullstate.o)
 .bss           0x0000000000000000        0x0 NuttX/nuttx/arch/arm/src/libarch.a(arm_copyfullstate.o)
 .text          0x0000000000000000        0x0 NuttX/nuttx/arch/arm/src/libarch.a(arm_createstack.o)
 .data          0x0000000000000000        0x0 NuttX/nuttx/arch/arm/src/libarch.a(arm_createstack.o)
 .bss           0x0000000000000000        0x0 NuttX/nuttx/arch/arm/src/libarch.a(arm_createstack.o)
 .text          0x0000000000000000        0x0 NuttX/nuttx/arch/arm/src/libarch.a(arm_exit.o)
 .data          0x0000000000000000        0x0 NuttX/nuttx/arch/arm/src/libarch.a(arm_exit.o)
 .bss           0x0000000000000000        0x0 NuttX/nuttx/arch/arm/src/libarch.a(arm_exit.o)
 .text          0x0000000000000000        0x0 NuttX/nuttx/arch/arm/src/libarch.a(arm_initialize.o)
 .data          0x0000000000000000        0x0 NuttX/nuttx/arch/arm/src/libarch.a(arm_initialize.o)
 .bss           0x0000000000000000        0x0 NuttX/nuttx/arch/arm/src/libarch.a(arm_initialize.o)
 .text          0x0000000000000000        0x0 NuttX/nuttx/arch/arm/src/libarch.a(arm_initialstate.o)
 .data          0x0000000000000000        0x0 NuttX/nuttx/arch/arm/src/libarch.a(arm_initialstate.o)
 .bss           0x0000000000000000        0x0 NuttX/nuttx/arch/arm/src/libarch.a(arm_initialstate.o)
 .text          0x0000000000000000        0x0 NuttX/nuttx/arch/arm/src/libarch.a(arm_interruptcontext.o)
 .data          0x0000000000000000        0x0 NuttX/nuttx/arch/arm/src/libarch.a(arm_interruptcontext.o)
 .bss           0x0000000000000000        0x0 NuttX/nuttx/arch/arm/src/libarch.a(arm_interruptcontext.o)
 .text          0x0000000000000000        0x0 NuttX/nuttx/arch/arm/src/libarch.a(arm_releasepending.o)
 .data          0x0000000000000000        0x0 NuttX/nuttx/arch/arm/src/libarch.a(arm_releasepending.o)
 .bss           0x0000000000000000        0x0 NuttX/nuttx/arch/arm/src/libarch.a(arm_releasepending.o)
 .text          0x0000000000000000        0x0 NuttX/nuttx/arch/arm/src/libarch.a(arm_releasestack.o)
 .data          0x0000000000000000        0x0 NuttX/nuttx/arch/arm/src/libarch.a(arm_releasestack.o)
 .bss           0x0000000000000000        0x0 NuttX/nuttx/arch/arm/src/libarch.a(arm_releasestack.o)
 .text          0x0000000000000000        0x0 NuttX/nuttx/arch/arm/src/libarch.a(arm_schedulesigaction.o)
 .data          0x0000000000000000        0x0 NuttX/nuttx/arch/arm/src/libarch.a(arm_schedulesigaction.o)
 .bss           0x0000000000000000        0x0 NuttX/nuttx/arch/arm/src/libarch.a(arm_schedulesigaction.o)
 .text          0x0000000000000000        0x0 NuttX/nuttx/arch/arm/src/libarch.a(arm_sigdeliver.o)
 .data          0x0000000000000000        0x0 NuttX/nuttx/arch/arm/src/libarch.a(arm_sigdeliver.o)
 .bss           0x0000000000000000        0x0 NuttX/nuttx/arch/arm/src/libarch.a(arm_sigdeliver.o)
 .text          0x0000000000000000        0x0 NuttX/nuttx/arch/arm/src/libarch.a(arm_stackframe.o)
 .data          0x0000000000000000        0x0 NuttX/nuttx/arch/arm/src/libarch.a(arm_stackframe.o)
 .bss           0x0000000000000000        0x0 NuttX/nuttx/arch/arm/src/libarch.a(arm_stackframe.o)
 .text          0x0000000000000000        0x0 NuttX/nuttx/arch/arm/src/libarch.a(arm_unblocktask.o)
 .data          0x0000000000000000        0x0 NuttX/nuttx/arch/arm/src/libarch.a(arm_unblocktask.o)
 .bss           0x0000000000000000        0x0 NuttX/nuttx/arch/arm/src/libarch.a(arm_unblocktask.o)
 .text          0x0000000000000000        0x0 NuttX/nuttx/arch/arm/src/libarch.a(arm_usestack.o)
 .data          0x0000000000000000        0x0 NuttX/nuttx/arch/arm/src/libarch.a(arm_usestack.o)
 .bss           0x0000000000000000        0x0 NuttX/nuttx/arch/arm/src/libarch.a(arm_usestack.o)
 .text          0x0000000000000000        0x0 NuttX/nuttx/arch/arm/src/libarch.a(arm_idle.o)
 .data          0x0000000000000000        0x0 NuttX/nuttx/arch/arm/src/libarch.a(arm_idle.o)
 .bss           0x0000000000000000        0x0 NuttX/nuttx/arch/arm/src/libarch.a(arm_idle.o)
 .text          0x0000000000000000        0x0 NuttX/nuttx/arch/arm/src/libarch.a(arm_checkstack.o)
 .data          0x0000000000000000        0x0 NuttX/nuttx/arch/arm/src/libarch.a(arm_checkstack.o)
 .bss           0x0000000000000000        0x0 NuttX/nuttx/arch/arm/src/libarch.a(arm_checkstack.o)
 .text.up_check_tcbstack
                0x0000000000000000       0x30 NuttX/nuttx/arch/arm/src/libarch.a(arm_checkstack.o)
 .text.up_check_tcbstack_remain
                0x0000000000000000        0xe NuttX/nuttx/arch/arm/src/libarch.a(arm_checkstack.o)
 .text.up_check_stack
                0x0000000000000000        0xc NuttX/nuttx/arch/arm/src/libarch.a(arm_checkstack.o)
 .text.up_check_stack_remain
                0x0000000000000000        0xc NuttX/nuttx/arch/arm/src/libarch.a(arm_checkstack.o)
 .text.up_check_intstack
                0x0000000000000000       0x2c NuttX/nuttx/arch/arm/src/libarch.a(arm_checkstack.o)
 .text.up_check_intstack_remain
                0x0000000000000000        0xc NuttX/nuttx/arch/arm/src/libarch.a(arm_checkstack.o)
 .data          0x0000000000000000        0x0 NuttX/nuttx/arch/arm/src/libarch.a(arm_fullcontextrestore.o)
 .bss           0x0000000000000000        0x0 NuttX/nuttx/arch/arm/src/libarch.a(arm_fullcontextrestore.o)
 .data          0x0000000000000000        0x0 NuttX/nuttx/arch/arm/src/libarch.a(arm_switchcontext.o)
 .bss           0x0000000000000000        0x0 NuttX/nuttx/arch/arm/src/libarch.a(arm_switchcontext.o)
 .text          0x0000000000000000        0x0 NuttX/nuttx/arch/arm/src/libarch.a(stm32_serial.o)
 .data          0x0000000000000000        0x0 NuttX/nuttx/arch/arm/src/libarch.a(stm32_serial.o)
 .bss           0x0000000000000000        0x0 NuttX/nuttx/arch/arm/src/libarch.a(stm32_serial.o)
 .text.stm32_serial_get_uart
                0x0000000000000000       0x24 NuttX/nuttx/arch/arm/src/libarch.a(stm32_serial.o)
 .text          0x0000000000000000        0x0 NuttX/nuttx/arch/arm/src/libarch.a(stm32_otgdev.o)
 .data          0x0000000000000000        0x0 NuttX/nuttx/arch/arm/src/libarch.a(stm32_otgdev.o)
 .bss           0x0000000000000000        0x0 NuttX/nuttx/arch/arm/src/libarch.a(stm32_otgdev.o)
 .text          0x0000000000000000        0x0 NuttX/nuttx/arch/arm/src/libarch.a(arm_mdelay.o)
 .data          0x0000000000000000        0x0 NuttX/nuttx/arch/arm/src/libarch.a(arm_mdelay.o)
 .bss           0x0000000000000000        0x0 NuttX/nuttx/arch/arm/src/libarch.a(arm_mdelay.o)
 .text          0x0000000000000000        0x0 NuttX/nuttx/mm/libmm.a(umm_initialize.o)
 .data          0x0000000000000000        0x0 NuttX/nuttx/mm/libmm.a(umm_initialize.o)
 .bss           0x0000000000000000        0x0 NuttX/nuttx/mm/libmm.a(umm_initialize.o)
 .text          0x0000000000000000        0x0 NuttX/nuttx/mm/libmm.a(umm_free.o)
 .data          0x0000000000000000        0x0 NuttX/nuttx/mm/libmm.a(umm_free.o)
 .bss           0x0000000000000000        0x0 NuttX/nuttx/mm/libmm.a(umm_free.o)
 .text          0x0000000000000000        0x0 NuttX/nuttx/mm/libmm.a(umm_malloc.o)
 .data          0x0000000000000000        0x0 NuttX/nuttx/mm/libmm.a(umm_malloc.o)
 .bss           0x0000000000000000        0x0 NuttX/nuttx/mm/libmm.a(umm_malloc.o)
 .text          0x0000000000000000        0x0 NuttX/nuttx/mm/libmm.a(umm_memalign.o)
 .data          0x0000000000000000        0x0 NuttX/nuttx/mm/libmm.a(umm_memalign.o)
 .bss           0x0000000000000000        0x0 NuttX/nuttx/mm/libmm.a(umm_memalign.o)
 .text          0x0000000000000000        0x0 NuttX/nuttx/mm/libmm.a(umm_zalloc.o)
 .data          0x0000000000000000        0x0 NuttX/nuttx/mm/libmm.a(umm_zalloc.o)
 .bss           0x0000000000000000        0x0 NuttX/nuttx/mm/libmm.a(umm_zalloc.o)
 .text          0x0000000000000000        0x0 NuttX/nuttx/mm/libmm.a(mm_initialize.o)
 .data          0x0000000000000000        0x0 NuttX/nuttx/mm/libmm.a(mm_initialize.o)
 .bss           0x0000000000000000        0x0 NuttX/nuttx/mm/libmm.a(mm_initialize.o)
 .text          0x0000000000000000        0x0 NuttX/nuttx/mm/libmm.a(mm_sem.o)
 .data          0x0000000000000000        0x0 NuttX/nuttx/mm/libmm.a(mm_sem.o)
 .bss           0x0000000000000000        0x0 NuttX/nuttx/mm/libmm.a(mm_sem.o)
 .text          0x0000000000000000        0x0 NuttX/nuttx/mm/libmm.a(mm_addfreechunk.o)
 .data          0x0000000000000000        0x0 NuttX/nuttx/mm/libmm.a(mm_addfreechunk.o)
 .bss           0x0000000000000000        0x0 NuttX/nuttx/mm/libmm.a(mm_addfreechunk.o)
 .text          0x0000000000000000        0x0 NuttX/nuttx/mm/libmm.a(mm_size2ndx.o)
 .data          0x0000000000000000        0x0 NuttX/nuttx/mm/libmm.a(mm_size2ndx.o)
 .bss           0x0000000000000000        0x0 NuttX/nuttx/mm/libmm.a(mm_size2ndx.o)
 .text          0x0000000000000000        0x0 NuttX/nuttx/mm/libmm.a(mm_free.o)
 .data          0x0000000000000000        0x0 NuttX/nuttx/mm/libmm.a(mm_free.o)
 .bss           0x0000000000000000        0x0 NuttX/nuttx/mm/libmm.a(mm_free.o)
 .text          0x0000000000000000        0x0 NuttX/nuttx/mm/libmm.a(mm_malloc.o)
 .data          0x0000000000000000        0x0 NuttX/nuttx/mm/libmm.a(mm_malloc.o)
 .bss           0x0000000000000000        0x0 NuttX/nuttx/mm/libmm.a(mm_malloc.o)
 .text          0x0000000000000000        0x0 NuttX/nuttx/mm/libmm.a(mm_memalign.o)
 .data          0x0000000000000000        0x0 NuttX/nuttx/mm/libmm.a(mm_memalign.o)
 .bss           0x0000000000000000        0x0 NuttX/nuttx/mm/libmm.a(mm_memalign.o)
 .text          0x0000000000000000        0x0 NuttX/nuttx/mm/libmm.a(mm_zalloc.o)
 .data          0x0000000000000000        0x0 NuttX/nuttx/mm/libmm.a(mm_zalloc.o)
 .bss           0x0000000000000000        0x0 NuttX/nuttx/mm/libmm.a(mm_zalloc.o)
 .text          0x0000000000000000        0x0 NuttX/nuttx/mm/libmm.a(umm_globals.o)
 .data          0x0000000000000000        0x0 NuttX/nuttx/mm/libmm.a(umm_globals.o)
 .bss           0x0000000000000000        0x0 NuttX/nuttx/mm/libmm.a(umm_globals.o)
 .text          0x0000000000000000        0x0 NuttX/nuttx/mm/libmm.a(mm_shrinkchunk.o)
 .data          0x0000000000000000        0x0 NuttX/nuttx/mm/libmm.a(mm_shrinkchunk.o)
 .bss           0x0000000000000000        0x0 NuttX/nuttx/mm/libmm.a(mm_shrinkchunk.o)
 .text          0x0000000000000000        0x0 NuttX/nuttx/libs/libc/libc.a(lib_errno.o)
 .data          0x0000000000000000        0x0 NuttX/nuttx/libs/libc/libc.a(lib_errno.o)
 .bss           0x0000000000000000        0x0 NuttX/nuttx/libs/libc/libc.a(lib_errno.o)
 .text          0x0000000000000000        0x0 NuttX/nuttx/libs/libc/libc.a(lib_stream.o)
 .data          0x0000000000000000        0x0 NuttX/nuttx/libs/libc/libc.a(lib_stream.o)
 .bss           0x0000000000000000        0x0 NuttX/nuttx/libs/libc/libc.a(lib_stream.o)
 .text          0x0000000000000000        0x0 NuttX/nuttx/libs/libc/libc.a(lib_filesem.o)
 .data          0x0000000000000000        0x0 NuttX/nuttx/libs/libc/libc.a(lib_filesem.o)
 .bss           0x0000000000000000        0x0 NuttX/nuttx/libs/libc/libc.a(lib_filesem.o)
 .text          0x0000000000000000        0x0 NuttX/nuttx/libs/libc/libc.a(sq_addlast.o)
 .data          0x0000000000000000        0x0 NuttX/nuttx/libs/libc/libc.a(sq_addlast.o)
 .bss           0x0000000000000000        0x0 NuttX/nuttx/libs/libc/libc.a(sq_addlast.o)
 .text          0x0000000000000000        0x0 NuttX/nuttx/libs/libc/libc.a(sq_rem.o)
 .data          0x0000000000000000        0x0 NuttX/nuttx/libs/libc/libc.a(sq_rem.o)
 .bss           0x0000000000000000        0x0 NuttX/nuttx/libs/libc/libc.a(sq_rem.o)
 .text          0x0000000000000000        0x0 NuttX/nuttx/libs/libc/libc.a(sq_remfirst.o)
 .data          0x0000000000000000        0x0 NuttX/nuttx/libs/libc/libc.a(sq_remfirst.o)
 .bss           0x0000000000000000        0x0 NuttX/nuttx/libs/libc/libc.a(sq_remfirst.o)
 .text          0x0000000000000000        0x0 NuttX/nuttx/libs/libc/libc.a(sq_remafter.o)
 .data          0x0000000000000000        0x0 NuttX/nuttx/libs/libc/libc.a(sq_remafter.o)
 .bss           0x0000000000000000        0x0 NuttX/nuttx/libs/libc/libc.a(sq_remafter.o)
 .text          0x0000000000000000        0x0 NuttX/nuttx/libs/libc/libc.a(dq_addlast.o)
 .data          0x0000000000000000        0x0 NuttX/nuttx/libs/libc/libc.a(dq_addlast.o)
 .bss           0x0000000000000000        0x0 NuttX/nuttx/libs/libc/libc.a(dq_addlast.o)
 .text          0x0000000000000000        0x0 NuttX/nuttx/libs/libc/libc.a(dq_addfirst.o)
 .data          0x0000000000000000        0x0 NuttX/nuttx/libs/libc/libc.a(dq_addfirst.o)
 .bss           0x0000000000000000        0x0 NuttX/nuttx/libs/libc/libc.a(dq_addfirst.o)
 .text          0x0000000000000000        0x0 NuttX/nuttx/libs/libc/libc.a(dq_rem.o)
 .data          0x0000000000000000        0x0 NuttX/nuttx/libs/libc/libc.a(dq_rem.o)
 .bss           0x0000000000000000        0x0 NuttX/nuttx/libs/libc/libc.a(dq_rem.o)
 .text          0x0000000000000000        0x0 NuttX/nuttx/libs/libc/libc.a(task_startup.o)
 .data          0x0000000000000000        0x0 NuttX/nuttx/libs/libc/libc.a(task_startup.o)
 .bss           0x0000000000000000        0x0 NuttX/nuttx/libs/libc/libc.a(task_startup.o)
 .text          0x0000000000000000        0x0 NuttX/nuttx/libs/libc/libc.a(sem_init.o)
 .data          0x0000000000000000        0x0 NuttX/nuttx/libs/libc/libc.a(sem_init.o)
 .bss           0x0000000000000000        0x0 NuttX/nuttx/libs/libc/libc.a(sem_init.o)
 .text          0x0000000000000000        0x0 NuttX/nuttx/libs/libc/libc.a(sig_addset.o)
 .data          0x0000000000000000        0x0 NuttX/nuttx/libs/libc/libc.a(sig_addset.o)
 .bss           0x0000000000000000        0x0 NuttX/nuttx/libs/libc/libc.a(sig_addset.o)
 .text.sigaddset
                0x0000000000000000       0x18 NuttX/nuttx/libs/libc/libc.a(sig_addset.o)
 .text          0x0000000000000000        0x0 NuttX/nuttx/libs/libc/libc.a(sig_delset.o)
 .data          0x0000000000000000        0x0 NuttX/nuttx/libs/libc/libc.a(sig_delset.o)
 .bss           0x0000000000000000        0x0 NuttX/nuttx/libs/libc/libc.a(sig_delset.o)
 .text.sigdelset
                0x0000000000000000       0x18 NuttX/nuttx/libs/libc/libc.a(sig_delset.o)
 .text          0x0000000000000000        0x0 NuttX/nuttx/libs/libc/libc.a(sig_emptyset.o)
 .data          0x0000000000000000        0x0 NuttX/nuttx/libs/libc/libc.a(sig_emptyset.o)
 .bss           0x0000000000000000        0x0 NuttX/nuttx/libs/libc/libc.a(sig_emptyset.o)
 .text          0x0000000000000000        0x0 NuttX/nuttx/libs/libc/libc.a(sig_ismember.o)
 .data          0x0000000000000000        0x0 NuttX/nuttx/libs/libc/libc.a(sig_ismember.o)
 .bss           0x0000000000000000        0x0 NuttX/nuttx/libs/libc/libc.a(sig_ismember.o)
 .text.sigismember
                0x0000000000000000       0x18 NuttX/nuttx/libs/libc/libc.a(sig_ismember.o)
 .text          0x0000000000000000        0x0 NuttX/nuttx/libs/libc/libc.a(lib_printf.o)
 .data          0x0000000000000000        0x0 NuttX/nuttx/libs/libc/libc.a(lib_printf.o)
 .bss           0x0000000000000000        0x0 NuttX/nuttx/libs/libc/libc.a(lib_printf.o)
 .text          0x0000000000000000        0x0 NuttX/nuttx/libs/libc/libc.a(lib_libflushall.o)
 .data          0x0000000000000000        0x0 NuttX/nuttx/libs/libc/libc.a(lib_libflushall.o)
 .bss           0x0000000000000000        0x0 NuttX/nuttx/libs/libc/libc.a(lib_libflushall.o)
 .text          0x0000000000000000        0x0 NuttX/nuttx/libs/libc/libc.a(lib_libfflush.o)
 .data          0x0000000000000000        0x0 NuttX/nuttx/libs/libc/libc.a(lib_libfflush.o)
 .bss           0x0000000000000000        0x0 NuttX/nuttx/libs/libc/libc.a(lib_libfflush.o)
 .text          0x0000000000000000        0x0 NuttX/nuttx/libs/libc/libc.a(lib_vfprintf.o)
 .data          0x0000000000000000        0x0 NuttX/nuttx/libs/libc/libc.a(lib_vfprintf.o)
 .bss           0x0000000000000000        0x0 NuttX/nuttx/libs/libc/libc.a(lib_vfprintf.o)
 .text          0x0000000000000000        0x0 NuttX/nuttx/libs/libc/libc.a(lib_stdoutstream.o)
 .data          0x0000000000000000        0x0 NuttX/nuttx/libs/libc/libc.a(lib_stdoutstream.o)
 .bss           0x0000000000000000        0x0 NuttX/nuttx/libs/libc/libc.a(lib_stdoutstream.o)
 .text          0x0000000000000000        0x0 NuttX/nuttx/libs/libc/libc.a(lib_memset.o)
 .data          0x0000000000000000        0x0 NuttX/nuttx/libs/libc/libc.a(lib_memset.o)
 .bss           0x0000000000000000        0x0 NuttX/nuttx/libs/libc/libc.a(lib_memset.o)
 .text          0x0000000000000000        0x0 NuttX/nuttx/libs/libc/libc.a(lib_strcpy.o)
 .data          0x0000000000000000        0x0 NuttX/nuttx/libs/libc/libc.a(lib_strcpy.o)
 .bss           0x0000000000000000        0x0 NuttX/nuttx/libs/libc/libc.a(lib_strcpy.o)
 .text          0x0000000000000000        0x0 NuttX/nuttx/libs/libc/libc.a(lib_strlen.o)
 .data          0x0000000000000000        0x0 NuttX/nuttx/libs/libc/libc.a(lib_strlen.o)
 .bss           0x0000000000000000        0x0 NuttX/nuttx/libs/libc/libc.a(lib_strlen.o)
 .text          0x0000000000000000        0x0 NuttX/nuttx/libs/libc/libc.a(lib_strncpy.o)
 .data          0x0000000000000000        0x0 NuttX/nuttx/libs/libc/libc.a(lib_strncpy.o)
 .bss           0x0000000000000000        0x0 NuttX/nuttx/libs/libc/libc.a(lib_strncpy.o)
 .text          0x0000000000000000        0x0 NuttX/nuttx/libs/libc/libc.a(lib_cfspeed.o)
 .data          0x0000000000000000        0x0 NuttX/nuttx/libs/libc/libc.a(lib_cfspeed.o)
 .bss           0x0000000000000000        0x0 NuttX/nuttx/libs/libc/libc.a(lib_cfspeed.o)
 .text          0x0000000000000000        0x0 NuttX/nuttx/libs/libc/libc.a(tls_getinfo.o)
 .data          0x0000000000000000        0x0 NuttX/nuttx/libs/libc/libc.a(tls_getinfo.o)
 .bss           0x0000000000000000        0x0 NuttX/nuttx/libs/libc/libc.a(tls_getinfo.o)
 .text          0x0000000000000000        0x0 NuttX/nuttx/libs/libc/libc.a(lib_streamsem.o)
 .data          0x0000000000000000        0x0 NuttX/nuttx/libs/libc/libc.a(lib_streamsem.o)
 .bss           0x0000000000000000        0x0 NuttX/nuttx/libs/libc/libc.a(lib_streamsem.o)
 .text          0x0000000000000000        0x0 NuttX/nuttx/libs/libc/libc.a(lib_libnoflush.o)
 .data          0x0000000000000000        0x0 NuttX/nuttx/libs/libc/libc.a(lib_libnoflush.o)
 .bss           0x0000000000000000        0x0 NuttX/nuttx/libs/libc/libc.a(lib_libnoflush.o)
 .text          0x0000000000000000        0x0 NuttX/nuttx/libs/libc/libc.a(lib_libvsprintf.o)
 .data          0x0000000000000000        0x0 NuttX/nuttx/libs/libc/libc.a(lib_libvsprintf.o)
 .bss           0x0000000000000000        0x0 NuttX/nuttx/libs/libc/libc.a(lib_libvsprintf.o)
 .text          0x0000000000000000        0x0 NuttX/nuttx/libs/libc/libc.a(lib_ultoa_invert.o)
 .data          0x0000000000000000        0x0 NuttX/nuttx/libs/libc/libc.a(lib_ultoa_invert.o)
 .bss           0x0000000000000000        0x0 NuttX/nuttx/libs/libc/libc.a(lib_ultoa_invert.o)
 .text          0x0000000000000000        0x0 NuttX/nuttx/libs/libc/libc.a(lib_dtoa_engine.o)
 .data          0x0000000000000000        0x0 NuttX/nuttx/libs/libc/libc.a(lib_dtoa_engine.o)
 .bss           0x0000000000000000        0x0 NuttX/nuttx/libs/libc/libc.a(lib_dtoa_engine.o)
 .text          0x0000000000000000        0x0 NuttX/nuttx/libs/libc/libc.a(lib_dtoa_data.o)
 .data          0x0000000000000000        0x0 NuttX/nuttx/libs/libc/libc.a(lib_dtoa_data.o)
 .bss           0x0000000000000000        0x0 NuttX/nuttx/libs/libc/libc.a(lib_dtoa_data.o)
 .text          0x0000000000000000        0x0 NuttX/nuttx/libs/libc/libc.a(lib_fputc.o)
 .data          0x0000000000000000        0x0 NuttX/nuttx/libs/libc/libc.a(lib_fputc.o)
 .bss           0x0000000000000000        0x0 NuttX/nuttx/libs/libc/libc.a(lib_fputc.o)
 .text          0x0000000000000000        0x0 NuttX/nuttx/libs/libc/libc.a(lib_strnlen.o)
 .data          0x0000000000000000        0x0 NuttX/nuttx/libs/libc/libc.a(lib_strnlen.o)
 .bss           0x0000000000000000        0x0 NuttX/nuttx/libs/libc/libc.a(lib_strnlen.o)
 .text          0x0000000000000000        0x0 NuttX/nuttx/libs/libc/libc.a(lib_libfwrite.o)
 .data          0x0000000000000000        0x0 NuttX/nuttx/libs/libc/libc.a(lib_libfwrite.o)
 .bss           0x0000000000000000        0x0 NuttX/nuttx/libs/libc/libc.a(lib_libfwrite.o)
 .text          0x0000000000000000        0x0 NuttX/nuttx/libs/libc/libc.a(lib_rdflush.o)
 .data          0x0000000000000000        0x0 NuttX/nuttx/libs/libc/libc.a(lib_rdflush.o)
 .bss           0x0000000000000000        0x0 NuttX/nuttx/libs/libc/libc.a(lib_rdflush.o)
 .text          0x0000000000000000        0x0 NuttX/nuttx/libs/libc/libc.a(lib_fseek.o)
 .data          0x0000000000000000        0x0 NuttX/nuttx/libs/libc/libc.a(lib_fseek.o)
 .bss           0x0000000000000000        0x0 NuttX/nuttx/libs/libc/libc.a(lib_fseek.o)
 .text          0x0000000000000000        0x0 NuttX/nuttx/libs/libc/libc.a(lib_wrflush.o)
 .data          0x0000000000000000        0x0 NuttX/nuttx/libs/libc/libc.a(lib_wrflush.o)
 .bss           0x0000000000000000        0x0 NuttX/nuttx/libs/libc/libc.a(lib_wrflush.o)
 .text          0x0000000000000000        0x0 platforms/nuttx/src/bootloader/common/libbootloader.a(bl.c.obj)
 .data          0x0000000000000000        0x0 platforms/nuttx/src/bootloader/common/libbootloader.a(bl.c.obj)
 .bss           0x0000000000000000        0x0 platforms/nuttx/src/bootloader/common/libbootloader.a(bl.c.obj)
 .text.buf_put  0x0000000000000000       0x28 platforms/nuttx/src/bootloader/common/libbootloader.a(bl.c.obj)
 .text.buf_get  0x0000000000000000       0x2c platforms/nuttx/src/bootloader/common/libbootloader.a(bl.c.obj)
 .bss.head      0x0000000000000000        0x4 platforms/nuttx/src/bootloader/common/libbootloader.a(bl.c.obj)
 .bss.rx_buf    0x0000000000000000      0x100 platforms/nuttx/src/bootloader/common/libbootloader.a(bl.c.obj)
 .bss.tail      0x0000000000000000        0x4 platforms/nuttx/src/bootloader/common/libbootloader.a(bl.c.obj)
 .text          0x0000000000000000        0x0 platforms/nuttx/src/bootloader/common/lib/libbootloader_lib.a(cdcacm.c.obj)
 .data          0x0000000000000000        0x0 platforms/nuttx/src/bootloader/common/lib/libbootloader_lib.a(cdcacm.c.obj)
 .bss           0x0000000000000000        0x0 platforms/nuttx/src/bootloader/common/lib/libbootloader_lib.a(cdcacm.c.obj)
 .text          0x0000000000000000        0x0 platforms/nuttx/src/bootloader/common/lib/libbootloader_lib.a(uart.c.obj)
 .data          0x0000000000000000        0x0 platforms/nuttx/src/bootloader/common/lib/libbootloader_lib.a(uart.c.obj)
 .bss           0x0000000000000000        0x0 platforms/nuttx/src/bootloader/common/lib/libbootloader_lib.a(uart.c.obj)
 .text          0x0000000000000000        0x0 NuttX/nuttx/boards/libboards.a(boardctl.o)
 .data          0x0000000000000000        0x0 NuttX/nuttx/boards/libboards.a(boardctl.o)
 .bss           0x0000000000000000        0x0 NuttX/nuttx/boards/libboards.a(boardctl.o)
 .text          0x0000000000000000        0x0 NuttX/nuttx/drivers/libdrivers.a(serial.o)
 .data          0x0000000000000000        0x0 NuttX/nuttx/drivers/libdrivers.a(serial.o)
 .bss           0x0000000000000000        0x0 NuttX/nuttx/drivers/libdrivers.a(serial.o)
 .text          0x0000000000000000        0x0 NuttX/nuttx/drivers/libdrivers.a(serial_io.o)
 .data          0x0000000000000000        0x0 NuttX/nuttx/drivers/libdrivers.a(serial_io.o)
 .bss           0x0000000000000000        0x0 NuttX/nuttx/drivers/libdrivers.a(serial_io.o)
 .text          0x0000000000000000        0x0 NuttX/nuttx/drivers/libdrivers.a(syslog_flush.o)
 .data          0x0000000000000000        0x0 NuttX/nuttx/drivers/libdrivers.a(syslog_flush.o)
 .bss           0x0000000000000000        0x0 NuttX/nuttx/drivers/libdrivers.a(syslog_flush.o)
 .text          0x0000000000000000        0x0 NuttX/nuttx/drivers/libdrivers.a(syslog_initialize.o)
 .data          0x0000000000000000        0x0 NuttX/nuttx/drivers/libdrivers.a(syslog_initialize.o)
 .bss           0x0000000000000000        0x0 NuttX/nuttx/drivers/libdrivers.a(syslog_initialize.o)
 .text          0x0000000000000000        0x0 NuttX/nuttx/drivers/libdrivers.a(cdcacm.o)
 .data          0x0000000000000000        0x0 NuttX/nuttx/drivers/libdrivers.a(cdcacm.o)
 .bss           0x0000000000000000        0x0 NuttX/nuttx/drivers/libdrivers.a(cdcacm.o)
 .text          0x0000000000000000        0x0 NuttX/nuttx/drivers/libdrivers.a(cdcacm_desc.o)
 .data          0x0000000000000000        0x0 NuttX/nuttx/drivers/libdrivers.a(cdcacm_desc.o)
 .bss           0x0000000000000000        0x0 NuttX/nuttx/drivers/libdrivers.a(cdcacm_desc.o)
 .text          0x0000000000000000        0x0 NuttX/nuttx/drivers/libdrivers.a(dev_null.o)
 .data          0x0000000000000000        0x0 NuttX/nuttx/drivers/libdrivers.a(dev_null.o)
 .bss           0x0000000000000000        0x0 NuttX/nuttx/drivers/libdrivers.a(dev_null.o)
 .text          0x0000000000000000        0x0 NuttX/nuttx/drivers/libdrivers.a(syslog_channel.o)
 .data          0x0000000000000000        0x0 NuttX/nuttx/drivers/libdrivers.a(syslog_channel.o)
 .bss           0x0000000000000000        0x0 NuttX/nuttx/drivers/libdrivers.a(syslog_channel.o)
 .text.syslog_channel
                0x0000000000000000       0x14 NuttX/nuttx/drivers/libdrivers.a(syslog_channel.o)
 .text.syslog_channel_remove
                0x0000000000000000       0x2c NuttX/nuttx/drivers/libdrivers.a(syslog_channel.o)
 .text          0x0000000000000000        0x0 NuttX/nuttx/fs/libfs.a(fs_initialize.o)
 .data          0x0000000000000000        0x0 NuttX/nuttx/fs/libfs.a(fs_initialize.o)
 .bss           0x0000000000000000        0x0 NuttX/nuttx/fs/libfs.a(fs_initialize.o)
 .text          0x0000000000000000        0x0 NuttX/nuttx/fs/libfs.a(fs_files.o)
 .data          0x0000000000000000        0x0 NuttX/nuttx/fs/libfs.a(fs_files.o)
 .bss           0x0000000000000000        0x0 NuttX/nuttx/fs/libfs.a(fs_files.o)
 .text.files_duplist
                0x0000000000000000       0x64 NuttX/nuttx/fs/libfs.a(fs_files.o)
 .text.nx_dup2  0x0000000000000000       0x84 NuttX/nuttx/fs/libfs.a(fs_files.o)
 .text.dup2     0x0000000000000000       0x1a NuttX/nuttx/fs/libfs.a(fs_files.o)
 .text          0x0000000000000000        0x0 NuttX/nuttx/fs/libfs.a(fs_inode.o)
 .data          0x0000000000000000        0x0 NuttX/nuttx/fs/libfs.a(fs_inode.o)
 .bss           0x0000000000000000        0x0 NuttX/nuttx/fs/libfs.a(fs_inode.o)
 .text          0x0000000000000000        0x0 NuttX/nuttx/fs/libfs.a(fs_inodereserve.o)
 .data          0x0000000000000000        0x0 NuttX/nuttx/fs/libfs.a(fs_inodereserve.o)
 .bss           0x0000000000000000        0x0 NuttX/nuttx/fs/libfs.a(fs_inodereserve.o)
 .text          0x0000000000000000        0x0 NuttX/nuttx/fs/libfs.a(fs_inodesearch.o)
 .data          0x0000000000000000        0x0 NuttX/nuttx/fs/libfs.a(fs_inodesearch.o)
 .bss           0x0000000000000000        0x0 NuttX/nuttx/fs/libfs.a(fs_inodesearch.o)
 .text          0x0000000000000000        0x0 NuttX/nuttx/fs/libfs.a(fs_close.o)
 .data          0x0000000000000000        0x0 NuttX/nuttx/fs/libfs.a(fs_close.o)
 .bss           0x0000000000000000        0x0 NuttX/nuttx/fs/libfs.a(fs_close.o)
 .text          0x0000000000000000        0x0 NuttX/nuttx/fs/libfs.a(fs_dup2.o)
 .data          0x0000000000000000        0x0 NuttX/nuttx/fs/libfs.a(fs_dup2.o)
 .bss           0x0000000000000000        0x0 NuttX/nuttx/fs/libfs.a(fs_dup2.o)
 .text          0x0000000000000000        0x0 NuttX/nuttx/fs/libfs.a(fs_lseek.o)
 .data          0x0000000000000000        0x0 NuttX/nuttx/fs/libfs.a(fs_lseek.o)
 .bss           0x0000000000000000        0x0 NuttX/nuttx/fs/libfs.a(fs_lseek.o)
 .text          0x0000000000000000        0x0 NuttX/nuttx/fs/libfs.a(fs_open.o)
 .data          0x0000000000000000        0x0 NuttX/nuttx/fs/libfs.a(fs_open.o)
 .bss           0x0000000000000000        0x0 NuttX/nuttx/fs/libfs.a(fs_open.o)
 .text.file_open
                0x0000000000000000       0x1e NuttX/nuttx/fs/libfs.a(fs_open.o)
 .text.nx_open  0x0000000000000000       0x1a NuttX/nuttx/fs/libfs.a(fs_open.o)
 .text          0x0000000000000000        0x0 NuttX/nuttx/fs/libfs.a(fs_read.o)
 .data          0x0000000000000000        0x0 NuttX/nuttx/fs/libfs.a(fs_read.o)
 .bss           0x0000000000000000        0x0 NuttX/nuttx/fs/libfs.a(fs_read.o)
 .text          0x0000000000000000        0x0 NuttX/nuttx/fs/libfs.a(fs_write.o)
 .data          0x0000000000000000        0x0 NuttX/nuttx/fs/libfs.a(fs_write.o)
 .bss           0x0000000000000000        0x0 NuttX/nuttx/fs/libfs.a(fs_write.o)
 .text          0x0000000000000000        0x0 NuttX/nuttx/fs/libfs.a(fs_fdopen.o)
 .data          0x0000000000000000        0x0 NuttX/nuttx/fs/libfs.a(fs_fdopen.o)
 .bss           0x0000000000000000        0x0 NuttX/nuttx/fs/libfs.a(fs_fdopen.o)
 .text          0x0000000000000000        0x0 NuttX/nuttx/fs/libfs.a(fs_registerdriver.o)
 .data          0x0000000000000000        0x0 NuttX/nuttx/fs/libfs.a(fs_registerdriver.o)
 .bss           0x0000000000000000        0x0 NuttX/nuttx/fs/libfs.a(fs_registerdriver.o)
 .text          0x0000000000000000        0x0 NuttX/nuttx/fs/libfs.a(fs_unregisterdriver.o)
 .data          0x0000000000000000        0x0 NuttX/nuttx/fs/libfs.a(fs_unregisterdriver.o)
 .bss           0x0000000000000000        0x0 NuttX/nuttx/fs/libfs.a(fs_unregisterdriver.o)
 .text          0x0000000000000000        0x0 NuttX/nuttx/fs/libfs.a(fs_inodeaddref.o)
 .data          0x0000000000000000        0x0 NuttX/nuttx/fs/libfs.a(fs_inodeaddref.o)
 .bss           0x0000000000000000        0x0 NuttX/nuttx/fs/libfs.a(fs_inodeaddref.o)
 .text          0x0000000000000000        0x0 NuttX/nuttx/fs/libfs.a(fs_inodefind.o)
 .data          0x0000000000000000        0x0 NuttX/nuttx/fs/libfs.a(fs_inodefind.o)
 .bss           0x0000000000000000        0x0 NuttX/nuttx/fs/libfs.a(fs_inodefind.o)
 .text          0x0000000000000000        0x0 NuttX/nuttx/fs/libfs.a(fs_inoderelease.o)
 .data          0x0000000000000000        0x0 NuttX/nuttx/fs/libfs.a(fs_inoderelease.o)
 .bss           0x0000000000000000        0x0 NuttX/nuttx/fs/libfs.a(fs_inoderelease.o)
 .text          0x0000000000000000        0x0 NuttX/nuttx/fs/libfs.a(fs_inoderemove.o)
 .data          0x0000000000000000        0x0 NuttX/nuttx/fs/libfs.a(fs_inoderemove.o)
 .bss           0x0000000000000000        0x0 NuttX/nuttx/fs/libfs.a(fs_inoderemove.o)
 .text          0x0000000000000000        0x0 NuttX/nuttx/fs/libfs.a(fs_inodefree.o)
 .data          0x0000000000000000        0x0 NuttX/nuttx/fs/libfs.a(fs_inodefree.o)
 .bss           0x0000000000000000        0x0 NuttX/nuttx/fs/libfs.a(fs_inodefree.o)
 .text          0x0000000000000000        0x0 NuttX/nuttx/sched/libsched.a(clock_initialize.o)
 .data          0x0000000000000000        0x0 NuttX/nuttx/sched/libsched.a(clock_initialize.o)
 .bss           0x0000000000000000        0x0 NuttX/nuttx/sched/libsched.a(clock_initialize.o)
 .text.clock_basetime
                0x0000000000000000       0x20 NuttX/nuttx/sched/libsched.a(clock_initialize.o)
 .bss.g_basetime
                0x0000000000000000        0x8 NuttX/nuttx/sched/libsched.a(clock_initialize.o)
 .text          0x0000000000000000        0x0 NuttX/nuttx/sched/libsched.a(sched_getfiles.o)
 .data          0x0000000000000000        0x0 NuttX/nuttx/sched/libsched.a(sched_getfiles.o)
 .bss           0x0000000000000000        0x0 NuttX/nuttx/sched/libsched.a(sched_getfiles.o)
 .text          0x0000000000000000        0x0 NuttX/nuttx/sched/libsched.a(sched_addreadytorun.o)
 .data          0x0000000000000000        0x0 NuttX/nuttx/sched/libsched.a(sched_addreadytorun.o)
 .bss           0x0000000000000000        0x0 NuttX/nuttx/sched/libsched.a(sched_addreadytorun.o)
 .text          0x0000000000000000        0x0 NuttX/nuttx/sched/libsched.a(sched_removereadytorun.o)
 .data          0x0000000000000000        0x0 NuttX/nuttx/sched/libsched.a(sched_removereadytorun.o)
 .bss           0x0000000000000000        0x0 NuttX/nuttx/sched/libsched.a(sched_removereadytorun.o)
 .text          0x0000000000000000        0x0 NuttX/nuttx/sched/libsched.a(sched_mergepending.o)
 .data          0x0000000000000000        0x0 NuttX/nuttx/sched/libsched.a(sched_mergepending.o)
 .bss           0x0000000000000000        0x0 NuttX/nuttx/sched/libsched.a(sched_mergepending.o)
 .text          0x0000000000000000        0x0 NuttX/nuttx/sched/libsched.a(sched_getstreams.o)
 .data          0x0000000000000000        0x0 NuttX/nuttx/sched/libsched.a(sched_getstreams.o)
 .bss           0x0000000000000000        0x0 NuttX/nuttx/sched/libsched.a(sched_getstreams.o)
 .text          0x0000000000000000        0x0 NuttX/nuttx/sched/libsched.a(sched_idletask.o)
 .data          0x0000000000000000        0x0 NuttX/nuttx/sched/libsched.a(sched_idletask.o)
 .bss           0x0000000000000000        0x0 NuttX/nuttx/sched/libsched.a(sched_idletask.o)
 .text          0x0000000000000000        0x0 NuttX/nuttx/sched/libsched.a(sched_self.o)
 .data          0x0000000000000000        0x0 NuttX/nuttx/sched/libsched.a(sched_self.o)
 .bss           0x0000000000000000        0x0 NuttX/nuttx/sched/libsched.a(sched_self.o)
 .text          0x0000000000000000        0x0 NuttX/nuttx/sched/libsched.a(sched_get_stackinfo.o)
 .data          0x0000000000000000        0x0 NuttX/nuttx/sched/libsched.a(sched_get_stackinfo.o)
 .bss           0x0000000000000000        0x0 NuttX/nuttx/sched/libsched.a(sched_get_stackinfo.o)
 .text          0x0000000000000000        0x0 NuttX/nuttx/sched/libsched.a(sem_wait.o)
 .data          0x0000000000000000        0x0 NuttX/nuttx/sched/libsched.a(sem_wait.o)
 .bss           0x0000000000000000        0x0 NuttX/nuttx/sched/libsched.a(sem_wait.o)
 .text          0x0000000000000000        0x0 NuttX/nuttx/sched/libsched.a(sem_trywait.o)
 .data          0x0000000000000000        0x0 NuttX/nuttx/sched/libsched.a(sem_trywait.o)
 .bss           0x0000000000000000        0x0 NuttX/nuttx/sched/libsched.a(sem_trywait.o)
 .text          0x0000000000000000        0x0 NuttX/nuttx/sched/libsched.a(sem_post.o)
 .data          0x0000000000000000        0x0 NuttX/nuttx/sched/libsched.a(sem_post.o)
 .bss           0x0000000000000000        0x0 NuttX/nuttx/sched/libsched.a(sem_post.o)
 .text          0x0000000000000000        0x0 NuttX/nuttx/sched/libsched.a(sem_reset.o)
 .data          0x0000000000000000        0x0 NuttX/nuttx/sched/libsched.a(sem_reset.o)
 .bss           0x0000000000000000        0x0 NuttX/nuttx/sched/libsched.a(sem_reset.o)
 .text          0x0000000000000000        0x0 NuttX/nuttx/sched/libsched.a(sig_kill.o)
 .data          0x0000000000000000        0x0 NuttX/nuttx/sched/libsched.a(sig_kill.o)
 .bss           0x0000000000000000        0x0 NuttX/nuttx/sched/libsched.a(sig_kill.o)
 .text.kill     0x0000000000000000       0x1a NuttX/nuttx/sched/libsched.a(sig_kill.o)
 .text          0x0000000000000000        0x0 NuttX/nuttx/sched/libsched.a(sig_usleep.o)
 .data          0x0000000000000000        0x0 NuttX/nuttx/sched/libsched.a(sig_usleep.o)
 .bss           0x0000000000000000        0x0 NuttX/nuttx/sched/libsched.a(sig_usleep.o)
 .text          0x0000000000000000        0x0 NuttX/nuttx/sched/libsched.a(task_exit.o)
 .data          0x0000000000000000        0x0 NuttX/nuttx/sched/libsched.a(task_exit.o)
 .bss           0x0000000000000000        0x0 NuttX/nuttx/sched/libsched.a(task_exit.o)
 .text          0x0000000000000000        0x0 NuttX/nuttx/sched/libsched.a(task_getpid.o)
 .data          0x0000000000000000        0x0 NuttX/nuttx/sched/libsched.a(task_getpid.o)
 .bss           0x0000000000000000        0x0 NuttX/nuttx/sched/libsched.a(task_getpid.o)
 .text          0x0000000000000000        0x0 NuttX/nuttx/sched/libsched.a(task_terminate.o)
 .data          0x0000000000000000        0x0 NuttX/nuttx/sched/libsched.a(task_terminate.o)
 .bss           0x0000000000000000        0x0 NuttX/nuttx/sched/libsched.a(task_terminate.o)
 .text          0x0000000000000000        0x0 NuttX/nuttx/sched/libsched.a(wd_start.o)
 .data          0x0000000000000000        0x0 NuttX/nuttx/sched/libsched.a(wd_start.o)
 .bss           0x0000000000000000        0x0 NuttX/nuttx/sched/libsched.a(wd_start.o)
 .text          0x0000000000000000        0x0 NuttX/nuttx/sched/libsched.a(sig_nanosleep.o)
 .data          0x0000000000000000        0x0 NuttX/nuttx/sched/libsched.a(sig_nanosleep.o)
 .bss           0x0000000000000000        0x0 NuttX/nuttx/sched/libsched.a(sig_nanosleep.o)
 .text.clock_nanosleep
                0x0000000000000000       0x6c NuttX/nuttx/sched/libsched.a(sig_nanosleep.o)
 .text          0x0000000000000000        0x0 NuttX/nuttx/sched/libsched.a(clock_gettime.o)
 .data          0x0000000000000000        0x0 NuttX/nuttx/sched/libsched.a(clock_gettime.o)
 .bss           0x0000000000000000        0x0 NuttX/nuttx/sched/libsched.a(clock_gettime.o)
 .text.clock_gettime
                0x0000000000000000       0x9c NuttX/nuttx/sched/libsched.a(clock_gettime.o)
 .debug_info    0x0000000000000000      0x36e NuttX/nuttx/sched/libsched.a(clock_gettime.o)
 .debug_abbrev  0x0000000000000000      0x28d NuttX/nuttx/sched/libsched.a(clock_gettime.o)
 .debug_loc     0x0000000000000000      0x1a0 NuttX/nuttx/sched/libsched.a(clock_gettime.o)
 .debug_aranges
                0x0000000000000000       0x20 NuttX/nuttx/sched/libsched.a(clock_gettime.o)
 .debug_ranges  0x0000000000000000       0x60 NuttX/nuttx/sched/libsched.a(clock_gettime.o)
 .debug_line    0x0000000000000000      0x38e NuttX/nuttx/sched/libsched.a(clock_gettime.o)
 .debug_str     0x0000000000000000      0x2ed NuttX/nuttx/sched/libsched.a(clock_gettime.o)
 .comment       0x0000000000000000       0x4d NuttX/nuttx/sched/libsched.a(clock_gettime.o)
 .debug_frame   0x0000000000000000       0x30 NuttX/nuttx/sched/libsched.a(clock_gettime.o)
 .ARM.attributes
                0x0000000000000000       0x32 NuttX/nuttx/sched/libsched.a(clock_gettime.o)
 .text          0x0000000000000000        0x0 NuttX/nuttx/sched/libsched.a(clock_systime_timespec.o)
 .data          0x0000000000000000        0x0 NuttX/nuttx/sched/libsched.a(clock_systime_timespec.o)
 .bss           0x0000000000000000        0x0 NuttX/nuttx/sched/libsched.a(clock_systime_timespec.o)
 .text.clock_systime_timespec
                0x0000000000000000       0x3c NuttX/nuttx/sched/libsched.a(clock_systime_timespec.o)
 .debug_info    0x0000000000000000      0x190 NuttX/nuttx/sched/libsched.a(clock_systime_timespec.o)
 .debug_abbrev  0x0000000000000000       0xff NuttX/nuttx/sched/libsched.a(clock_systime_timespec.o)
 .debug_loc     0x0000000000000000       0x4c NuttX/nuttx/sched/libsched.a(clock_systime_timespec.o)
 .debug_aranges
                0x0000000000000000       0x20 NuttX/nuttx/sched/libsched.a(clock_systime_timespec.o)
 .debug_ranges  0x0000000000000000       0x38 NuttX/nuttx/sched/libsched.a(clock_systime_timespec.o)
 .debug_line    0x0000000000000000      0x230 NuttX/nuttx/sched/libsched.a(clock_systime_timespec.o)
 .debug_str     0x0000000000000000      0x27b NuttX/nuttx/sched/libsched.a(clock_systime_timespec.o)
 .comment       0x0000000000000000       0x4d NuttX/nuttx/sched/libsched.a(clock_systime_timespec.o)
 .debug_frame   0x0000000000000000       0x2c NuttX/nuttx/sched/libsched.a(clock_systime_timespec.o)
 .ARM.attributes
                0x0000000000000000       0x32 NuttX/nuttx/sched/libsched.a(clock_systime_timespec.o)
 .text          0x0000000000000000        0x0 NuttX/nuttx/sched/libsched.a(sig_timedwait.o)
 .data          0x0000000000000000        0x0 NuttX/nuttx/sched/libsched.a(sig_timedwait.o)
 .bss           0x0000000000000000        0x0 NuttX/nuttx/sched/libsched.a(sig_timedwait.o)
 .text.sigtimedwait
                0x0000000000000000       0x1a NuttX/nuttx/sched/libsched.a(sig_timedwait.o)
 .text          0x0000000000000000        0x0 NuttX/nuttx/arch/arm/src/libarch.a(stm32_timerisr.o)
 .data          0x0000000000000000        0x0 NuttX/nuttx/arch/arm/src/libarch.a(stm32_timerisr.o)
 .bss           0x0000000000000000        0x0 NuttX/nuttx/arch/arm/src/libarch.a(stm32_timerisr.o)
 .text          0x0000000000000000        0x0 NuttX/nuttx/mm/libmm.a(umm_realloc.o)
 .data          0x0000000000000000        0x0 NuttX/nuttx/mm/libmm.a(umm_realloc.o)
 .bss           0x0000000000000000        0x0 NuttX/nuttx/mm/libmm.a(umm_realloc.o)
 .text          0x0000000000000000        0x0 NuttX/nuttx/mm/libmm.a(mm_realloc.o)
 .data          0x0000000000000000        0x0 NuttX/nuttx/mm/libmm.a(mm_realloc.o)
 .bss           0x0000000000000000        0x0 NuttX/nuttx/mm/libmm.a(mm_realloc.o)
 .text          0x0000000000000000        0x0 NuttX/nuttx/libs/libc/libc.a(lib_umask.o)
 .data          0x0000000000000000        0x0 NuttX/nuttx/libs/libc/libc.a(lib_umask.o)
 .bss           0x0000000000000000        0x0 NuttX/nuttx/libs/libc/libc.a(lib_umask.o)
 .text.umask    0x0000000000000000       0x10 NuttX/nuttx/libs/libc/libc.a(lib_umask.o)
 .text          0x0000000000000000        0x0 NuttX/nuttx/libs/libc/libc.a(sq_addfirst.o)
 .data          0x0000000000000000        0x0 NuttX/nuttx/libs/libc/libc.a(sq_addfirst.o)
 .bss           0x0000000000000000        0x0 NuttX/nuttx/libs/libc/libc.a(sq_addfirst.o)
 .text          0x0000000000000000        0x0 NuttX/nuttx/libs/libc/libc.a(sq_addafter.o)
 .data          0x0000000000000000        0x0 NuttX/nuttx/libs/libc/libc.a(sq_addafter.o)
 .bss           0x0000000000000000        0x0 NuttX/nuttx/libs/libc/libc.a(sq_addafter.o)
 .text          0x0000000000000000        0x0 NuttX/nuttx/libs/libc/libc.a(clock_ticks2time.o)
 .data          0x0000000000000000        0x0 NuttX/nuttx/libs/libc/libc.a(clock_ticks2time.o)
 .bss           0x0000000000000000        0x0 NuttX/nuttx/libs/libc/libc.a(clock_ticks2time.o)
 .text          0x0000000000000000        0x0 NuttX/nuttx/libs/libc/libc.a(clock_time2ticks.o)
 .data          0x0000000000000000        0x0 NuttX/nuttx/libs/libc/libc.a(clock_time2ticks.o)
 .bss           0x0000000000000000        0x0 NuttX/nuttx/libs/libc/libc.a(clock_time2ticks.o)
 .text          0x0000000000000000        0x0 NuttX/nuttx/libs/libc/libc.a(clock_timespec_subtract.o)
 .data          0x0000000000000000        0x0 NuttX/nuttx/libs/libc/libc.a(clock_timespec_subtract.o)
 .bss           0x0000000000000000        0x0 NuttX/nuttx/libs/libc/libc.a(clock_timespec_subtract.o)
 .text.clock_timespec_subtract
                0x0000000000000000       0x3c NuttX/nuttx/libs/libc/libc.a(clock_timespec_subtract.o)
 .debug_info    0x0000000000000000      0x15d NuttX/nuttx/libs/libc/libc.a(clock_timespec_subtract.o)
 .debug_abbrev  0x0000000000000000       0xee NuttX/nuttx/libs/libc/libc.a(clock_timespec_subtract.o)
 .debug_loc     0x0000000000000000       0x71 NuttX/nuttx/libs/libc/libc.a(clock_timespec_subtract.o)
 .debug_aranges
                0x0000000000000000       0x20 NuttX/nuttx/libs/libc/libc.a(clock_timespec_subtract.o)
 .debug_ranges  0x0000000000000000       0x10 NuttX/nuttx/libs/libc/libc.a(clock_timespec_subtract.o)
 .debug_line    0x0000000000000000      0x1e8 NuttX/nuttx/libs/libc/libc.a(clock_timespec_subtract.o)
 .debug_str     0x0000000000000000      0x23f NuttX/nuttx/libs/libc/libc.a(clock_timespec_subtract.o)
 .comment       0x0000000000000000       0x4d NuttX/nuttx/libs/libc/libc.a(clock_timespec_subtract.o)
 .debug_frame   0x0000000000000000       0x2c NuttX/nuttx/libs/libc/libc.a(clock_timespec_subtract.o)
 .ARM.attributes
                0x0000000000000000       0x32 NuttX/nuttx/libs/libc/libc.a(clock_timespec_subtract.o)
 .text          0x0000000000000000        0x0 NuttX/nuttx/libs/libc/libc.a(sem_getvalue.o)
 .data          0x0000000000000000        0x0 NuttX/nuttx/libs/libc/libc.a(sem_getvalue.o)
 .bss           0x0000000000000000        0x0 NuttX/nuttx/libs/libc/libc.a(sem_getvalue.o)
 .text.sem_getvalue
                0x0000000000000000       0x1a NuttX/nuttx/libs/libc/libc.a(sem_getvalue.o)
 .text          0x0000000000000000        0x0 NuttX/nuttx/libs/libc/libc.a(sem_setprotocol.o)
 .data          0x0000000000000000        0x0 NuttX/nuttx/libs/libc/libc.a(sem_setprotocol.o)
 .bss           0x0000000000000000        0x0 NuttX/nuttx/libs/libc/libc.a(sem_setprotocol.o)
 .text.sem_setprotocol
                0x0000000000000000       0x1a NuttX/nuttx/libs/libc/libc.a(sem_setprotocol.o)
 .text          0x0000000000000000        0x0 NuttX/nuttx/libs/libc/libc.a(lib_asprintf.o)
 .data          0x0000000000000000        0x0 NuttX/nuttx/libs/libc/libc.a(lib_asprintf.o)
 .bss           0x0000000000000000        0x0 NuttX/nuttx/libs/libc/libc.a(lib_asprintf.o)
 .text          0x0000000000000000        0x0 NuttX/nuttx/libs/libc/libc.a(lib_snprintf.o)
 .data          0x0000000000000000        0x0 NuttX/nuttx/libs/libc/libc.a(lib_snprintf.o)
 .bss           0x0000000000000000        0x0 NuttX/nuttx/libs/libc/libc.a(lib_snprintf.o)
 .text          0x0000000000000000        0x0 NuttX/nuttx/libs/libc/libc.a(lib_vasprintf.o)
 .data          0x0000000000000000        0x0 NuttX/nuttx/libs/libc/libc.a(lib_vasprintf.o)
 .bss           0x0000000000000000        0x0 NuttX/nuttx/libs/libc/libc.a(lib_vasprintf.o)
 .text          0x0000000000000000        0x0 NuttX/nuttx/libs/libc/libc.a(lib_memoutstream.o)
 .data          0x0000000000000000        0x0 NuttX/nuttx/libs/libc/libc.a(lib_memoutstream.o)
 .bss           0x0000000000000000        0x0 NuttX/nuttx/libs/libc/libc.a(lib_memoutstream.o)
 .text          0x0000000000000000        0x0 NuttX/nuttx/libs/libc/libc.a(lib_nulloutstream.o)
 .data          0x0000000000000000        0x0 NuttX/nuttx/libs/libc/libc.a(lib_nulloutstream.o)
 .bss           0x0000000000000000        0x0 NuttX/nuttx/libs/libc/libc.a(lib_nulloutstream.o)
 .text          0x0000000000000000        0x0 NuttX/nuttx/libs/libc/libc.a(lib_atol.o)
 .data          0x0000000000000000        0x0 NuttX/nuttx/libs/libc/libc.a(lib_atol.o)
 .bss           0x0000000000000000        0x0 NuttX/nuttx/libs/libc/libc.a(lib_atol.o)
 .text          0x0000000000000000        0x0 NuttX/nuttx/libs/libc/libc.a(lib_strtol.o)
 .data          0x0000000000000000        0x0 NuttX/nuttx/libs/libc/libc.a(lib_strtol.o)
 .bss           0x0000000000000000        0x0 NuttX/nuttx/libs/libc/libc.a(lib_strtol.o)
 .text          0x0000000000000000        0x0 NuttX/nuttx/libs/libc/libc.a(lib_strtoul.o)
 .data          0x0000000000000000        0x0 NuttX/nuttx/libs/libc/libc.a(lib_strtoul.o)
 .bss           0x0000000000000000        0x0 NuttX/nuttx/libs/libc/libc.a(lib_strtoul.o)
 .text          0x0000000000000000        0x0 NuttX/nuttx/libs/libc/libc.a(lib_checkbase.o)
 .data          0x0000000000000000        0x0 NuttX/nuttx/libs/libc/libc.a(lib_checkbase.o)
 .bss           0x0000000000000000        0x0 NuttX/nuttx/libs/libc/libc.a(lib_checkbase.o)
 .text          0x0000000000000000        0x0 NuttX/nuttx/libs/libc/libc.a(lib_isbasedigit.o)
 .data          0x0000000000000000        0x0 NuttX/nuttx/libs/libc/libc.a(lib_isbasedigit.o)
 .bss           0x0000000000000000        0x0 NuttX/nuttx/libs/libc/libc.a(lib_isbasedigit.o)
 .text          0x0000000000000000        0x0 NuttX/nuttx/libs/libc/libc.a(lib_skipspace.o)
 .data          0x0000000000000000        0x0 NuttX/nuttx/libs/libc/libc.a(lib_skipspace.o)
 .bss           0x0000000000000000        0x0 NuttX/nuttx/libs/libc/libc.a(lib_skipspace.o)
 .text          0x0000000000000000        0x0 NuttX/nuttx/libs/libc/libc.a(lib_strdup.o)
 .data          0x0000000000000000        0x0 NuttX/nuttx/libs/libc/libc.a(lib_strdup.o)
 .bss           0x0000000000000000        0x0 NuttX/nuttx/libs/libc/libc.a(lib_strdup.o)
 .text          0x0000000000000000        0x0 NuttX/nuttx/libs/libc/libc.a(lib_strtok.o)
 .data          0x0000000000000000        0x0 NuttX/nuttx/libs/libc/libc.a(lib_strtok.o)
 .bss           0x0000000000000000        0x0 NuttX/nuttx/libs/libc/libc.a(lib_strtok.o)
 .text          0x0000000000000000        0x0 NuttX/nuttx/libs/libc/libc.a(lib_strtokr.o)
 .data          0x0000000000000000        0x0 NuttX/nuttx/libs/libc/libc.a(lib_strtokr.o)
 .bss           0x0000000000000000        0x0 NuttX/nuttx/libs/libc/libc.a(lib_strtokr.o)
 .text          0x0000000000000000        0x0 NuttX/nuttx/libs/libc/libc.a(lib_strchr.o)
 .data          0x0000000000000000        0x0 NuttX/nuttx/libs/libc/libc.a(lib_strchr.o)
 .bss           0x0000000000000000        0x0 NuttX/nuttx/libs/libc/libc.a(lib_strchr.o)
 .text          0x0000000000000000        0x0 NuttX/nuttx/libs/libc/libc.a(lib_tcgetattr.o)
 .data          0x0000000000000000        0x0 NuttX/nuttx/libs/libc/libc.a(lib_tcgetattr.o)
 .bss           0x0000000000000000        0x0 NuttX/nuttx/libs/libc/libc.a(lib_tcgetattr.o)
 .text          0x0000000000000000        0x0 NuttX/nuttx/libs/libc/libc.a(lib_tcsetattr.o)
 .data          0x0000000000000000        0x0 NuttX/nuttx/libs/libc/libc.a(lib_tcsetattr.o)
 .bss           0x0000000000000000        0x0 NuttX/nuttx/libs/libc/libc.a(lib_tcsetattr.o)
 .text          0x0000000000000000        0x0 NuttX/nuttx/libs/libc/libc.a(lib_calendar2utc.o)
 .data          0x0000000000000000        0x0 NuttX/nuttx/libs/libc/libc.a(lib_calendar2utc.o)
 .bss           0x0000000000000000        0x0 NuttX/nuttx/libs/libc/libc.a(lib_calendar2utc.o)
 .text.clock_calendar2utc
                0x0000000000000000       0x34 NuttX/nuttx/libs/libc/libc.a(lib_calendar2utc.o)
 .debug_info    0x0000000000000000      0x13e NuttX/nuttx/libs/libc/libc.a(lib_calendar2utc.o)
 .debug_abbrev  0x0000000000000000       0xca NuttX/nuttx/libs/libc/libc.a(lib_calendar2utc.o)
 .debug_loc     0x0000000000000000      0x12d NuttX/nuttx/libs/libc/libc.a(lib_calendar2utc.o)
 .debug_aranges
                0x0000000000000000       0x20 NuttX/nuttx/libs/libc/libc.a(lib_calendar2utc.o)
 .debug_ranges  0x0000000000000000       0x10 NuttX/nuttx/libs/libc/libc.a(lib_calendar2utc.o)
 .debug_line    0x0000000000000000      0x169 NuttX/nuttx/libs/libc/libc.a(lib_calendar2utc.o)
 .debug_str     0x0000000000000000      0x235 NuttX/nuttx/libs/libc/libc.a(lib_calendar2utc.o)
 .comment       0x0000000000000000       0x4d NuttX/nuttx/libs/libc/libc.a(lib_calendar2utc.o)
 .debug_frame   0x0000000000000000       0x2c NuttX/nuttx/libs/libc/libc.a(lib_calendar2utc.o)
 .ARM.attributes
                0x0000000000000000       0x32 NuttX/nuttx/libs/libc/libc.a(lib_calendar2utc.o)
 .text          0x0000000000000000        0x0 NuttX/nuttx/libs/libc/libc.a(lib_daysbeforemonth.o)
 .data          0x0000000000000000        0x0 NuttX/nuttx/libs/libc/libc.a(lib_daysbeforemonth.o)
 .bss           0x0000000000000000        0x0 NuttX/nuttx/libs/libc/libc.a(lib_daysbeforemonth.o)
 .text.clock_daysbeforemonth
                0x0000000000000000       0x18 NuttX/nuttx/libs/libc/libc.a(lib_daysbeforemonth.o)
 .rodata.g_daysbeforemonth
                0x0000000000000000       0x1a NuttX/nuttx/libs/libc/libc.a(lib_daysbeforemonth.o)
 .debug_info    0x0000000000000000      0x10f NuttX/nuttx/libs/libc/libc.a(lib_daysbeforemonth.o)
 .debug_abbrev  0x0000000000000000       0xba NuttX/nuttx/libs/libc/libc.a(lib_daysbeforemonth.o)
 .debug_loc     0x0000000000000000       0x3a NuttX/nuttx/libs/libc/libc.a(lib_daysbeforemonth.o)
 .debug_aranges
                0x0000000000000000       0x20 NuttX/nuttx/libs/libc/libc.a(lib_daysbeforemonth.o)
 .debug_ranges  0x0000000000000000       0x10 NuttX/nuttx/libs/libc/libc.a(lib_daysbeforemonth.o)
 .debug_line    0x0000000000000000      0x15f NuttX/nuttx/libs/libc/libc.a(lib_daysbeforemonth.o)
 .debug_str     0x0000000000000000      0x22b NuttX/nuttx/libs/libc/libc.a(lib_daysbeforemonth.o)
 .comment       0x0000000000000000       0x4d NuttX/nuttx/libs/libc/libc.a(lib_daysbeforemonth.o)
 .debug_frame   0x0000000000000000       0x20 NuttX/nuttx/libs/libc/libc.a(lib_daysbeforemonth.o)
 .ARM.attributes
                0x0000000000000000       0x32 NuttX/nuttx/libs/libc/libc.a(lib_daysbeforemonth.o)
 .text          0x0000000000000000        0x0 NuttX/nuttx/libs/libc/libc.a(lib_isleapyear.o)
 .data          0x0000000000000000        0x0 NuttX/nuttx/libs/libc/libc.a(lib_isleapyear.o)
 .bss           0x0000000000000000        0x0 NuttX/nuttx/libs/libc/libc.a(lib_isleapyear.o)
 .text.clock_isleapyear
                0x0000000000000000       0x2c NuttX/nuttx/libs/libc/libc.a(lib_isleapyear.o)
 .debug_info    0x0000000000000000       0x9e NuttX/nuttx/libs/libc/libc.a(lib_isleapyear.o)
 .debug_abbrev  0x0000000000000000       0x5a NuttX/nuttx/libs/libc/libc.a(lib_isleapyear.o)
 .debug_loc     0x0000000000000000       0x32 NuttX/nuttx/libs/libc/libc.a(lib_isleapyear.o)
 .debug_aranges
                0x0000000000000000       0x20 NuttX/nuttx/libs/libc/libc.a(lib_isleapyear.o)
 .debug_ranges  0x0000000000000000       0x10 NuttX/nuttx/libs/libc/libc.a(lib_isleapyear.o)
 .debug_line    0x0000000000000000       0xb9 NuttX/nuttx/libs/libc/libc.a(lib_isleapyear.o)
 .debug_str     0x0000000000000000      0x1e5 NuttX/nuttx/libs/libc/libc.a(lib_isleapyear.o)
 .comment       0x0000000000000000       0x4d NuttX/nuttx/libs/libc/libc.a(lib_isleapyear.o)
 .debug_frame   0x0000000000000000       0x20 NuttX/nuttx/libs/libc/libc.a(lib_isleapyear.o)
 .ARM.attributes
                0x0000000000000000       0x32 NuttX/nuttx/libs/libc/libc.a(lib_isleapyear.o)
 .text          0x0000000000000000        0x0 NuttX/nuttx/libs/libc/libc.a(task_getinfo.o)
 .data          0x0000000000000000        0x0 NuttX/nuttx/libs/libc/libc.a(task_getinfo.o)
 .bss           0x0000000000000000        0x0 NuttX/nuttx/libs/libc/libc.a(task_getinfo.o)
 .text          0x0000000000000000        0x0 NuttX/nuttx/libs/libc/libc.a(lib_isspace.o)
 .data          0x0000000000000000        0x0 NuttX/nuttx/libs/libc/libc.a(lib_isspace.o)
 .bss           0x0000000000000000        0x0 NuttX/nuttx/libs/libc/libc.a(lib_isspace.o)
 .text          0x0000000000000000        0x0 NuttX/nuttx/libs/libc/libc.a(lib_tcflush.o)
 .data          0x0000000000000000        0x0 NuttX/nuttx/libs/libc/libc.a(lib_tcflush.o)
 .bss           0x0000000000000000        0x0 NuttX/nuttx/libs/libc/libc.a(lib_tcflush.o)
 .text          0x0000000000000000        0x0 NuttX/nuttx/drivers/libdrivers.a(tcdrain.o)
 .data          0x0000000000000000        0x0 NuttX/nuttx/drivers/libdrivers.a(tcdrain.o)
 .bss           0x0000000000000000        0x0 NuttX/nuttx/drivers/libdrivers.a(tcdrain.o)
 .text          0x0000000000000000        0x0 NuttX/nuttx/fs/libfs.a(fs_ioctl.o)
 .data          0x0000000000000000        0x0 NuttX/nuttx/fs/libfs.a(fs_ioctl.o)
 .bss           0x0000000000000000        0x0 NuttX/nuttx/fs/libfs.a(fs_ioctl.o)
 .text.nx_ioctl
                0x0000000000000000       0x2a NuttX/nuttx/fs/libfs.a(fs_ioctl.o)
 .text          0x0000000000000000        0x0 NuttX/nuttx/fs/libfs.a(fs_inodegetpath.o)
 .data          0x0000000000000000        0x0 NuttX/nuttx/fs/libfs.a(fs_inodegetpath.o)
 .bss           0x0000000000000000        0x0 NuttX/nuttx/fs/libfs.a(fs_inodegetpath.o)
 .text          0x0000000000000000        0x0 NuttX/nuttx/fs/libfs.a(fs_fcntl.o)
 .data          0x0000000000000000        0x0 NuttX/nuttx/fs/libfs.a(fs_fcntl.o)
 .bss           0x0000000000000000        0x0 NuttX/nuttx/fs/libfs.a(fs_fcntl.o)
 .text.nx_fcntl
                0x0000000000000000       0x2a NuttX/nuttx/fs/libfs.a(fs_fcntl.o)
 .text.fcntl    0x0000000000000000       0x3c NuttX/nuttx/fs/libfs.a(fs_fcntl.o)
 .text          0x0000000000000000        0x0 NuttX/nuttx/fs/libfs.a(fs_dup.o)
 .data          0x0000000000000000        0x0 NuttX/nuttx/fs/libfs.a(fs_dup.o)
 .bss           0x0000000000000000        0x0 NuttX/nuttx/fs/libfs.a(fs_dup.o)
 .text.nx_dup   0x0000000000000000       0x1a NuttX/nuttx/fs/libfs.a(fs_dup.o)
 .text.dup      0x0000000000000000       0x1a NuttX/nuttx/fs/libfs.a(fs_dup.o)
 .text          0x0000000000000000        0x0 NuttX/nuttx/sched/libsched.a(sched_processtimer.o)
 .data          0x0000000000000000        0x0 NuttX/nuttx/sched/libsched.a(sched_processtimer.o)
 .bss           0x0000000000000000        0x0 NuttX/nuttx/sched/libsched.a(sched_processtimer.o)
 .text          0x0000000000000000        0x0 NuttX/nuttx/libs/libc/libc.a(lib_strcat.o)
 .data          0x0000000000000000        0x0 NuttX/nuttx/libs/libc/libc.a(lib_strcat.o)
 .bss           0x0000000000000000        0x0 NuttX/nuttx/libs/libc/libc.a(lib_strcat.o)
 .data          0x0000000000000000        0x0 /opt/gcc/bin/../lib/gcc/arm-none-eabi/9.3.1/thumb/v7e-m+dp/hard/libgcc.a(_aeabi_ldivmod.o)
 .bss           0x0000000000000000        0x0 /opt/gcc/bin/../lib/gcc/arm-none-eabi/9.3.1/thumb/v7e-m+dp/hard/libgcc.a(_aeabi_ldivmod.o)
 .data          0x0000000000000000        0x0 /opt/gcc/bin/../lib/gcc/arm-none-eabi/9.3.1/thumb/v7e-m+dp/hard/libgcc.a(_aeabi_uldivmod.o)
 .bss           0x0000000000000000        0x0 /opt/gcc/bin/../lib/gcc/arm-none-eabi/9.3.1/thumb/v7e-m+dp/hard/libgcc.a(_aeabi_uldivmod.o)
 .data          0x0000000000000000        0x0 /opt/gcc/bin/../lib/gcc/arm-none-eabi/9.3.1/thumb/v7e-m+dp/hard/libgcc.a(_fixunsdfdi.o)
 .bss           0x0000000000000000        0x0 /opt/gcc/bin/../lib/gcc/arm-none-eabi/9.3.1/thumb/v7e-m+dp/hard/libgcc.a(_fixunsdfdi.o)
 .data          0x0000000000000000        0x0 /opt/gcc/bin/../lib/gcc/arm-none-eabi/9.3.1/thumb/v7e-m+dp/hard/libgcc.a(_udivmoddi4.o)
 .bss           0x0000000000000000        0x0 /opt/gcc/bin/../lib/gcc/arm-none-eabi/9.3.1/thumb/v7e-m+dp/hard/libgcc.a(_udivmoddi4.o)
 .ARM.extab     0x0000000000000000        0x0 /opt/gcc/bin/../lib/gcc/arm-none-eabi/9.3.1/thumb/v7e-m+dp/hard/libgcc.a(_udivmoddi4.o)
 .data          0x0000000000000000        0x0 /opt/gcc/bin/../lib/gcc/arm-none-eabi/9.3.1/thumb/v7e-m+dp/hard/libgcc.a(_dvmd_tls.o)
 .bss           0x0000000000000000        0x0 /opt/gcc/bin/../lib/gcc/arm-none-eabi/9.3.1/thumb/v7e-m+dp/hard/libgcc.a(_dvmd_tls.o)
 .text          0x0000000000000000        0x0 platforms/nuttx/src/bootloader/stm/stm32h7/arch_bootloader/libarch_bootloader.a(main.c.obj)
 .data          0x0000000000000000        0x0 platforms/nuttx/src/bootloader/stm/stm32h7/arch_bootloader/libarch_bootloader.a(main.c.obj)
 .bss           0x0000000000000000        0x0 platforms/nuttx/src/bootloader/stm/stm32h7/arch_bootloader/libarch_bootloader.a(main.c.obj)
 .text.check_silicon
                0x0000000000000000        0x4 platforms/nuttx/src/bootloader/stm/stm32h7/arch_bootloader/libarch_bootloader.a(main.c.obj)
 .rodata.silicon_revs
                0x0000000000000000       0x10 platforms/nuttx/src/bootloader/stm/stm32h7/arch_bootloader/libarch_bootloader.a(main.c.obj)
 .text          0x0000000000000000        0x0 platforms/nuttx/src/bootloader/stm/stm32h7/arch_bootloader/libarch_bootloader.a(systick.c.obj)
 .data          0x0000000000000000        0x0 platforms/nuttx/src/bootloader/stm/stm32h7/arch_bootloader/libarch_bootloader.a(systick.c.obj)
 .bss           0x0000000000000000        0x0 platforms/nuttx/src/bootloader/stm/stm32h7/arch_bootloader/libarch_bootloader.a(systick.c.obj)
 .text.systick_get_countflag
                0x0000000000000000       0x10 platforms/nuttx/src/bootloader/stm/stm32h7/arch_bootloader/libarch_bootloader.a(systick.c.obj)
 .text          0x0000000000000000        0x0 platforms/nuttx/src/px4/stm/stm32h7/board_reset/libarch_board_reset.a(board_reset.cpp.obj)
 .data          0x0000000000000000        0x0 platforms/nuttx/src/px4/stm/stm32h7/board_reset/libarch_board_reset.a(board_reset.cpp.obj)
 .bss           0x0000000000000000        0x0 platforms/nuttx/src/px4/stm/stm32h7/board_reset/libarch_board_reset.a(board_reset.cpp.obj)
 .text          0x0000000000000000        0x0 NuttX/nuttx/arch/arm/src/libarch.a(arm_systemreset.o)
 .data          0x0000000000000000        0x0 NuttX/nuttx/arch/arm/src/libarch.a(arm_systemreset.o)
 .bss           0x0000000000000000        0x0 NuttX/nuttx/arch/arm/src/libarch.a(arm_systemreset.o)
 .text          0x0000000000000000        0x0 NuttX/nuttx/arch/arm/src/libarch.a(stm32_flash.o)
 .data          0x0000000000000000        0x0 NuttX/nuttx/arch/arm/src/libarch.a(stm32_flash.o)
 .bss           0x0000000000000000        0x0 NuttX/nuttx/arch/arm/src/libarch.a(stm32_flash.o)
 .text.stm32h7_flash_writeprotect
                0x0000000000000000       0x3e NuttX/nuttx/arch/arm/src/libarch.a(stm32_flash.o)
 .text.stm32h7_flash_getopt
                0x0000000000000000       0x12 NuttX/nuttx/arch/arm/src/libarch.a(stm32_flash.o)
 .text.stm32h7_flash_optmodify
                0x0000000000000000       0x94 NuttX/nuttx/arch/arm/src/libarch.a(stm32_flash.o)
 .text.stm32h7_flash_swapbanks
                0x0000000000000000       0x1e NuttX/nuttx/arch/arm/src/libarch.a(stm32_flash.o)
 .text.up_progmem_pagesize
                0x0000000000000000        0x4 NuttX/nuttx/arch/arm/src/libarch.a(stm32_flash.o)
 .text.up_progmem_getpage
                0x0000000000000000       0x1c NuttX/nuttx/arch/arm/src/libarch.a(stm32_flash.o)
 .text.up_progmem_neraseblocks
                0x0000000000000000        0x4 NuttX/nuttx/arch/arm/src/libarch.a(stm32_flash.o)
 .text.up_progmem_isuniform
                0x0000000000000000        0x4 NuttX/nuttx/arch/arm/src/libarch.a(stm32_flash.o)
 .text.up_progmem_erasesize
                0x0000000000000000        0x6 NuttX/nuttx/arch/arm/src/libarch.a(stm32_flash.o)
 .text          0x0000000000000000        0x0 platforms/nuttx/src/bootloader/common/lib/libbootloader_lib.a(flash_cache.c.obj)
 .data          0x0000000000000000        0x0 platforms/nuttx/src/bootloader/common/lib/libbootloader_lib.a(flash_cache.c.obj)
 .bss           0x0000000000000000        0x0 platforms/nuttx/src/bootloader/common/lib/libbootloader_lib.a(flash_cache.c.obj)

Memory Configuration

Name             Origin             Length             Attributes
itcm             0x0000000000000000 0x0000000000010000 xrw
flash            0x0000000008000000 0x0000000000020000 xr
dtcm1            0x0000000020000000 0x0000000000010000 xrw
dtcm2            0x0000000020010000 0x0000000000010000 xrw
sram             0x0000000024000000 0x0000000000080000 xrw
sram1            0x0000000030000000 0x0000000000020000 xrw
sram2            0x0000000030020000 0x0000000000020000 xrw
sram3            0x0000000030040000 0x0000000000008000 xrw
sram4            0x0000000038000000 0x0000000000010000 xrw
bbram            0x0000000038800000 0x0000000000001000 xrw
*default*        0x0000000000000000 0xffffffffffffffff

Linker script and memory map

LOAD platforms/nuttx/CMakeFiles/px4.dir/__/common/empty.c.obj

.text           0x0000000008000000     0xa6ac
                0x0000000008000000                _stext = ABSOLUTE (.)
 *(.vectors)
 .vectors       0x0000000008000000      0x298 NuttX/nuttx/arch/arm/src/libarch.a(arm_vectors.o)
                0x0000000008000000                _vectors
                0x00000000080002a0                . = ALIGN (0x20)
 *fill*         0x0000000008000298        0x8 
                0x00000000080002a0                _bootdelay_signature = ABSOLUTE (.)
 FILL mask 0xffecc2925d7d05c5
                0x00000000080002a8                . = (. + 0x8)
 *fill*         0x00000000080002a0        0x8 ffecc2925d7d05c5
 *(.text .text.*)
 .text          0x00000000080002a8       0x7c NuttX/nuttx/arch/arm/src/libarch.a(arm_exception.o)
                0x00000000080002a8                exception_common
 .text.__start  0x0000000008000324       0x9c NuttX/nuttx/arch/arm/src/libarch.a(stm32_start.o)
                0x0000000008000324                __start
 .text.stm32_stdclockconfig
                0x00000000080003c0      0x1ac NuttX/nuttx/arch/arm/src/libarch.a(stm32_rcc.o)
                0x00000000080003c0                stm32_stdclockconfig
 .text.stm32_clockconfig
                0x000000000800056c       0xac NuttX/nuttx/arch/arm/src/libarch.a(stm32_rcc.o)
                0x000000000800056c                stm32_clockconfig
 .text.stm32_lowsetup
                0x0000000008000618        0x2 NuttX/nuttx/arch/arm/src/libarch.a(stm32_lowputc.o)
                0x0000000008000618                stm32_lowsetup
 *fill*         0x000000000800061a        0x2 ffecc2925d7d05c5
 .text.stm32_pwr_enablebkp
                0x000000000800061c       0x7c NuttX/nuttx/arch/arm/src/libarch.a(stm32_pwr.o)
                0x000000000800061c                stm32_pwr_enablebkp
 .text.stm32_pwr_initbkp
                0x0000000008000698       0x38 NuttX/nuttx/arch/arm/src/libarch.a(stm32_pwr.o)
                0x0000000008000698                stm32_pwr_initbkp
 .text.arm_doirq
                0x00000000080006d0       0x24 NuttX/nuttx/arch/arm/src/libarch.a(arm_doirq.o)
                0x00000000080006d0                arm_doirq
 .text.modifyreg32
                0x00000000080006f4       0x2a NuttX/nuttx/arch/arm/src/libarch.a(arm_modifyreg32.o)
                0x00000000080006f4                modifyreg32
 *fill*         0x000000000800071e        0x2 ffecc2925d7d05c5
 .text.up_udelay
                0x0000000008000720       0x7c NuttX/nuttx/arch/arm/src/libarch.a(arm_udelay.o)
                0x0000000008000720                up_udelay
 .text.up_enable_icache
                0x000000000800079c       0x2c NuttX/nuttx/arch/arm/src/libarch.a(arm_cache.o)
                0x000000000800079c                up_enable_icache
 .text.stm32_irqinfo
                0x00000000080007c8       0xb4 NuttX/nuttx/arch/arm/src/libarch.a(stm32_irq.o)
 .text.up_irqinitialize
                0x000000000800087c       0x9c NuttX/nuttx/arch/arm/src/libarch.a(stm32_irq.o)
                0x000000000800087c                up_irqinitialize
 .text.up_disable_irq
                0x0000000008000918       0x28 NuttX/nuttx/arch/arm/src/libarch.a(stm32_irq.o)
                0x0000000008000918                up_disable_irq
 .text.up_enable_irq
                0x0000000008000940       0x26 NuttX/nuttx/arch/arm/src/libarch.a(stm32_irq.o)
                0x0000000008000940                up_enable_irq
 .text.arm_ack_irq
                0x0000000008000966        0x2 NuttX/nuttx/arch/arm/src/libarch.a(stm32_irq.o)
                0x0000000008000966                arm_ack_irq
 .text.arm_hardfault
                0x0000000008000968       0x24 NuttX/nuttx/arch/arm/src/libarch.a(arm_hardfault.o)
                0x0000000008000968                arm_hardfault
 .text.arm_svcall
                0x000000000800098c       0x34 NuttX/nuttx/arch/arm/src/libarch.a(arm_svcall.o)
                0x000000000800098c                arm_svcall
 .text          0x00000000080009c0      0x230 NuttX/nuttx/libs/libc/libc.a(arch_memcpy.o)
                0x00000000080009e0                memcpy
 .text._assert  0x0000000008000bf0        0xc NuttX/nuttx/libs/libc/libc.a(lib_assert.o)
                0x0000000008000bf0                _assert
 .text.unlikely.abort
                0x0000000008000bfc        0x8 NuttX/nuttx/libs/libc/libc.a(lib_abort.o)
                0x0000000008000bfc                abort
 .text.board_on_reset
                0x0000000008000c04        0x2 boards/hkust/nxt/src/libdrivers_board.a(bootloader_main.c.obj)
                0x0000000008000c04                board_on_reset
 .text.stm32_boardinitialize
                0x0000000008000c06        0x4 boards/hkust/nxt/src/libdrivers_board.a(bootloader_main.c.obj)
                0x0000000008000c06                stm32_boardinitialize
 .text.board_app_initialize
                0x0000000008000c0a        0x4 boards/hkust/nxt/src/libdrivers_board.a(bootloader_main.c.obj)
                0x0000000008000c0a                board_app_initialize
 .text.board_late_initialize
                0x0000000008000c0e        0x8 boards/hkust/nxt/src/libdrivers_board.a(bootloader_main.c.obj)
                0x0000000008000c0e                board_late_initialize
 .text.board_timerhook
                0x0000000008000c16        0x4 boards/hkust/nxt/src/libdrivers_board.a(bootloader_main.c.obj)
                0x0000000008000c16                board_timerhook
 *fill*         0x0000000008000c1a        0x2 ffecc2925d7d05c5
 .text.stm32_usbinitialize
                0x0000000008000c1c        0xc boards/hkust/nxt/src/libdrivers_board.a(usb.c.obj)
                0x0000000008000c1c                stm32_usbinitialize
 .text.stm32_usbsuspend
                0x0000000008000c28        0x2 boards/hkust/nxt/src/libdrivers_board.a(usb.c.obj)
                0x0000000008000c28                stm32_usbsuspend
 *fill*         0x0000000008000c2a        0x2 ffecc2925d7d05c5
 .text.nx_start
                0x0000000008000c2c      0x19c NuttX/nuttx/sched/libsched.a(nx_start.o)
                0x0000000008000c2c                nx_start
 .text.nx_start_task
                0x0000000008000dc8       0x28 NuttX/nuttx/sched/libsched.a(nx_bringup.o)
 .text.nx_bringup
                0x0000000008000df0       0x24 NuttX/nuttx/sched/libsched.a(nx_bringup.o)
                0x0000000008000df0                nx_bringup
 .text.irq_attach
                0x0000000008000e14       0x50 NuttX/nuttx/sched/libsched.a(irq_attach.o)
                0x0000000008000e14                irq_attach
 .text.irq_dispatch
                0x0000000008000e64       0x3c NuttX/nuttx/sched/libsched.a(irq_dispatch.o)
                0x0000000008000e64                irq_dispatch
 .text.irq_unexpected_isr
                0x0000000008000ea0       0x24 NuttX/nuttx/sched/libsched.a(irq_unexpectedisr.o)
                0x0000000008000ea0                irq_unexpected_isr
 .text.sched_lock
                0x0000000008000ec4       0x1c NuttX/nuttx/sched/libsched.a(sched_lock.o)
                0x0000000008000ec4                sched_lock
 .text.sched_unlock
                0x0000000008000ee0       0x5c NuttX/nuttx/sched/libsched.a(sched_unlock.o)
                0x0000000008000ee0                sched_unlock
 .text.nxthread_create
                0x0000000008000f3c       0x52 NuttX/nuttx/sched/libsched.a(task_create.o)
 .text.nxtask_create
                0x0000000008000f8e       0x18 NuttX/nuttx/sched/libsched.a(task_create.o)
                0x0000000008000f8e                nxtask_create
 .text.kthread_create_with_stack
                0x0000000008000fa6       0x1a NuttX/nuttx/sched/libsched.a(task_create.o)
                0x0000000008000fa6                kthread_create_with_stack
 .text.kthread_create
                0x0000000008000fc0       0x14 NuttX/nuttx/sched/libsched.a(task_create.o)
                0x0000000008000fc0                kthread_create
 .text.nxtask_init
                0x0000000008000fd4       0xb8 NuttX/nuttx/sched/libsched.a(task_init.o)
                0x0000000008000fd4                nxtask_init
 .text.nxtask_setup_scheduler
                0x000000000800108c      0x168 NuttX/nuttx/sched/libsched.a(task_setup.o)
                0x000000000800108c                nxtask_setup_scheduler
 .text.nxtask_setup_arguments
                0x00000000080011f4       0xd8 NuttX/nuttx/sched/libsched.a(task_setup.o)
                0x00000000080011f4                nxtask_setup_arguments
 .text.nxtask_activate
                0x00000000080012cc       0x24 NuttX/nuttx/sched/libsched.a(task_activate.o)
                0x00000000080012cc                nxtask_activate
 .text.nxtask_start
                0x00000000080012f0       0x48 NuttX/nuttx/sched/libsched.a(task_start.o)
                0x00000000080012f0                nxtask_start
 .text.exit     0x0000000008001338       0x1c NuttX/nuttx/sched/libsched.a(exit.o)
                0x0000000008001338                exit
 .text.group_deallocate
                0x0000000008001354       0x20 NuttX/nuttx/sched/libsched.a(group_create.o)
                0x0000000008001354                group_deallocate
 .text.group_allocate
                0x0000000008001374       0x34 NuttX/nuttx/sched/libsched.a(group_create.o)
                0x0000000008001374                group_allocate
 .text.group_initialize
                0x00000000080013a8       0x10 NuttX/nuttx/sched/libsched.a(group_create.o)
                0x00000000080013a8                group_initialize
 .text.group_leave
                0x00000000080013b8       0x34 NuttX/nuttx/sched/libsched.a(group_leave.o)
                0x00000000080013b8                group_leave
 .text.group_setupidlefiles
                0x00000000080013ec       0x16 NuttX/nuttx/sched/libsched.a(group_setupidlefiles.o)
                0x00000000080013ec                group_setupidlefiles
 .text.group_setuptaskfiles
                0x0000000008001402       0x16 NuttX/nuttx/sched/libsched.a(group_setuptaskfiles.o)
                0x0000000008001402                group_setuptaskfiles
 .text.irq_initialize
                0x0000000008001418       0x24 NuttX/nuttx/sched/libsched.a(irq_initialize.o)
                0x0000000008001418                irq_initialize
 .text.nxsched_release_tcb
                0x000000000800143c       0x68 NuttX/nuttx/sched/libsched.a(sched_releasetcb.o)
                0x000000000800143c                nxsched_release_tcb
 .text.nxsem_destroy
                0x00000000080014a4       0x16 NuttX/nuttx/sched/libsched.a(sem_destroy.o)
                0x00000000080014a4                nxsem_destroy
 .text.sem_destroy
                0x00000000080014ba       0x1a NuttX/nuttx/sched/libsched.a(sem_destroy.o)
                0x00000000080014ba                sem_destroy
 .text.nxsig_procmask
                0x00000000080014d4       0x70 NuttX/nuttx/sched/libsched.a(sig_procmask.o)
                0x00000000080014d4                nxsig_procmask
 .text.nxsig_unmask_pendingsignal
                0x0000000008001544       0x68 NuttX/nuttx/sched/libsched.a(sig_unmaskpendingsignal.o)
                0x0000000008001544                nxsig_unmask_pendingsignal
 .text.nxsig_remove_pendingsignal
                0x00000000080015ac       0x48 NuttX/nuttx/sched/libsched.a(sig_removependingsignal.o)
                0x00000000080015ac                nxsig_remove_pendingsignal
 .text.nxsig_release_pendingsignal
                0x00000000080015f4       0x5c NuttX/nuttx/sched/libsched.a(sig_releasependingsignal.o)
                0x00000000080015f4                nxsig_release_pendingsignal
 .text.nxsig_lowest
                0x0000000008001650       0x1e NuttX/nuttx/sched/libsched.a(sig_lowest.o)
                0x0000000008001650                nxsig_lowest
 .text.nxsig_cleanup
                0x000000000800166e       0x32 NuttX/nuttx/sched/libsched.a(sig_cleanup.o)
                0x000000000800166e                nxsig_cleanup
 .text.nxsig_release
                0x00000000080016a0       0x28 NuttX/nuttx/sched/libsched.a(sig_cleanup.o)
                0x00000000080016a0                nxsig_release
 .text.nxsig_tcbdispatch
                0x00000000080016c8      0x200 NuttX/nuttx/sched/libsched.a(sig_dispatch.o)
                0x00000000080016c8                nxsig_tcbdispatch
 .text.nxsig_dispatch
                0x00000000080018c8       0x20 NuttX/nuttx/sched/libsched.a(sig_dispatch.o)
                0x00000000080018c8                nxsig_dispatch
 .text.nxsig_deliver
                0x00000000080018e8       0xc6 NuttX/nuttx/sched/libsched.a(sig_deliver.o)
                0x00000000080018e8                nxsig_deliver
 .text.nxsig_null_action
                0x00000000080019ae        0x2 NuttX/nuttx/sched/libsched.a(sig_default.o)
 .text.nxsig_stop_task
                0x00000000080019b0       0x1c NuttX/nuttx/sched/libsched.a(sig_default.o)
 .text.nxsig_abnormal_termination
                0x00000000080019cc       0x18 NuttX/nuttx/sched/libsched.a(sig_default.o)
 .text.nxsig_isdefault
                0x00000000080019e4       0x14 NuttX/nuttx/sched/libsched.a(sig_default.o)
                0x00000000080019e4                nxsig_isdefault
 .text.nxsig_iscatchable
                0x00000000080019f8       0x28 NuttX/nuttx/sched/libsched.a(sig_default.o)
                0x00000000080019f8                nxsig_iscatchable
 .text.nxsig_default
                0x0000000008001a20       0x78 NuttX/nuttx/sched/libsched.a(sig_default.o)
                0x0000000008001a20                nxsig_default
 .text.nxsig_default_initialize
                0x0000000008001a98       0x50 NuttX/nuttx/sched/libsched.a(sig_default.o)
                0x0000000008001a98                nxsig_default_initialize
 .text.nxtask_exithook
                0x0000000008001ae8       0x38 NuttX/nuttx/sched/libsched.a(task_exithook.o)
                0x0000000008001ae8                nxtask_exithook
 .text.nxtask_recover
                0x0000000008001b20       0x12 NuttX/nuttx/sched/libsched.a(task_recover.o)
                0x0000000008001b20                nxtask_recover
 .text.nxnotify_cancellation
                0x0000000008001b32       0x36 NuttX/nuttx/sched/libsched.a(task_cancelpt.o)
                0x0000000008001b32                nxnotify_cancellation
 .text.wd_recover
                0x0000000008001b68        0x6 NuttX/nuttx/sched/libsched.a(wd_recover.o)
                0x0000000008001b68                wd_recover
 .text.group_setupstreams
                0x0000000008001b6e       0x38 NuttX/nuttx/sched/libsched.a(group_setupstreams.o)
                0x0000000008001b6e                group_setupstreams
 *fill*         0x0000000008001ba6        0x2 ffecc2925d7d05c5
 .text.nxsched_get_tcb
                0x0000000008001ba8       0x50 NuttX/nuttx/sched/libsched.a(sched_gettcb.o)
                0x0000000008001ba8                nxsched_get_tcb
 .text.nxsched_suspend
                0x0000000008001bf8       0x42 NuttX/nuttx/sched/libsched.a(sched_suspend.o)
                0x0000000008001bf8                nxsched_suspend
 .text.nxsched_continue
                0x0000000008001c3a       0x24 NuttX/nuttx/sched/libsched.a(sched_continue.o)
                0x0000000008001c3a                nxsched_continue
 .text.nxsem_recover
                0x0000000008001c5e       0x32 NuttX/nuttx/sched/libsched.a(sem_recover.o)
                0x0000000008001c5e                nxsem_recover
 .text.nxsem_wait_irq
                0x0000000008001c90       0x3a NuttX/nuttx/sched/libsched.a(sem_waitirq.o)
                0x0000000008001c90                nxsem_wait_irq
 *fill*         0x0000000008001cca        0x2 ffecc2925d7d05c5
 .text.nxsig_initialize
                0x0000000008001ccc       0xbc NuttX/nuttx/sched/libsched.a(sig_initialize.o)
                0x0000000008001ccc                nxsig_initialize
 .text.nxsig_alloc_actionblock
                0x0000000008001d88       0x28 NuttX/nuttx/sched/libsched.a(sig_initialize.o)
                0x0000000008001d88                nxsig_alloc_actionblock
 .text.nxsig_release_action
                0x0000000008001db0        0xc NuttX/nuttx/sched/libsched.a(sig_action.o)
                0x0000000008001db0                nxsig_release_action
 .text.nxsig_action
                0x0000000008001dbc       0xec NuttX/nuttx/sched/libsched.a(sig_action.o)
                0x0000000008001dbc                nxsig_action
 .text.nxsig_pendingset
                0x0000000008001ea8       0x38 NuttX/nuttx/sched/libsched.a(sig_pending.o)
                0x0000000008001ea8                nxsig_pendingset
 .text.nxsig_find_action
                0x0000000008001ee0       0x22 NuttX/nuttx/sched/libsched.a(sig_findaction.o)
                0x0000000008001ee0                nxsig_find_action
 *fill*         0x0000000008001f02        0x2 ffecc2925d7d05c5
 .text.nxsig_alloc_pendingsigaction
                0x0000000008001f04       0x54 NuttX/nuttx/sched/libsched.a(sig_allocpendingsigaction.o)
                0x0000000008001f04                nxsig_alloc_pendingsigaction
 .text.nxsig_release_pendingsigaction
                0x0000000008001f58       0x5c NuttX/nuttx/sched/libsched.a(sig_releasependingsigaction.o)
                0x0000000008001f58                nxsig_release_pendingsigaction
 .text.wd_cancel
                0x0000000008001fb4       0x68 NuttX/nuttx/sched/libsched.a(wd_cancel.o)
                0x0000000008001fb4                wd_cancel
 .text.nxsched_add_blocked
                0x000000000800201c       0x28 NuttX/nuttx/sched/libsched.a(sched_addblocked.o)
                0x000000000800201c                nxsched_add_blocked
 .text.nxsched_remove_blocked
                0x0000000008002044       0x1c NuttX/nuttx/sched/libsched.a(sched_removeblocked.o)
                0x0000000008002044                nxsched_remove_blocked
 .text.wd_initialize
                0x0000000008002060       0x10 NuttX/nuttx/sched/libsched.a(wd_initialize.o)
                0x0000000008002060                wd_initialize
 .text.nxsched_add_prioritized
                0x0000000008002070       0x48 NuttX/nuttx/sched/libsched.a(sched_addprioritized.o)
                0x0000000008002070                nxsched_add_prioritized
 .text.sercon_main
                0x00000000080020b8       0x60 NuttX/apps/libapps.a(cdcacm_main.c.src.NxtPX4.PX4-Autopilot.platforms.nuttx.NuttX.apps.system.cdcacm.o)
                0x00000000080020b8                sercon_main
 .text.up_allocate_heap
                0x0000000008002118       0x18 NuttX/nuttx/arch/arm/src/libarch.a(stm32_allocateheap.o)
                0x0000000008002118                up_allocate_heap
 .text.stm32_gpiowrite
                0x0000000008002130       0x2c NuttX/nuttx/arch/arm/src/libarch.a(stm32_gpio.o)
                0x0000000008002130                stm32_gpiowrite
 .text.stm32_configgpio
                0x000000000800215c      0x1c4 NuttX/nuttx/arch/arm/src/libarch.a(stm32_gpio.o)
                0x000000000800215c                stm32_configgpio
 .text.stm32_unconfiggpio
                0x0000000008002320        0x6 NuttX/nuttx/arch/arm/src/libarch.a(stm32_gpio.o)
                0x0000000008002320                stm32_unconfiggpio
 *fill*         0x0000000008002326        0x2 ffecc2925d7d05c5
 .text.stm32_gpioread
                0x0000000008002328       0x34 NuttX/nuttx/arch/arm/src/libarch.a(stm32_gpio.o)
                0x0000000008002328                stm32_gpioread
 .text.up_assert
                0x000000000800235c       0x5c NuttX/nuttx/arch/arm/src/libarch.a(arm_assert.o)
                0x000000000800235c                up_assert
 .text.up_block_task
                0x00000000080023b8       0x5c NuttX/nuttx/arch/arm/src/libarch.a(arm_blocktask.o)
                0x00000000080023b8                up_block_task
 .text.arm_copyfullstate
                0x0000000008002414       0x18 NuttX/nuttx/arch/arm/src/libarch.a(arm_copyfullstate.o)
                0x0000000008002414                arm_copyfullstate
 .text.up_create_stack
                0x000000000800242c       0x4e NuttX/nuttx/arch/arm/src/libarch.a(arm_createstack.o)
                0x000000000800242c                up_create_stack
 *fill*         0x000000000800247a        0x2 ffecc2925d7d05c5
 .text.up_exit  0x000000000800247c       0x2c NuttX/nuttx/arch/arm/src/libarch.a(arm_exit.o)
                0x000000000800247c                up_exit
 .text.up_initialize
                0x00000000080024a8       0x40 NuttX/nuttx/arch/arm/src/libarch.a(arm_initialize.o)
                0x00000000080024a8                up_initialize
 .text.up_initial_state
                0x00000000080024e8       0x60 NuttX/nuttx/arch/arm/src/libarch.a(arm_initialstate.o)
                0x00000000080024e8                up_initial_state
 .text.up_interrupt_context
                0x0000000008002548       0x10 NuttX/nuttx/arch/arm/src/libarch.a(arm_interruptcontext.o)
                0x0000000008002548                up_interrupt_context
 .text.up_release_pending
                0x0000000008002558       0x38 NuttX/nuttx/arch/arm/src/libarch.a(arm_releasepending.o)
                0x0000000008002558                up_release_pending
 .text.up_release_stack
                0x0000000008002590       0x24 NuttX/nuttx/arch/arm/src/libarch.a(arm_releasestack.o)
                0x0000000008002590                up_release_stack
 .text.up_schedule_sigaction
                0x00000000080025b4       0x88 NuttX/nuttx/arch/arm/src/libarch.a(arm_schedulesigaction.o)
                0x00000000080025b4                up_schedule_sigaction
 .text.arm_sigdeliver
                0x000000000800263c       0x5c NuttX/nuttx/arch/arm/src/libarch.a(arm_sigdeliver.o)
                0x000000000800263c                arm_sigdeliver
 .text.up_stack_frame
                0x0000000008002698       0x36 NuttX/nuttx/arch/arm/src/libarch.a(arm_stackframe.o)
                0x0000000008002698                up_stack_frame
 *fill*         0x00000000080026ce        0x2 ffecc2925d7d05c5
 .text.up_unblock_task
                0x00000000080026d0       0x40 NuttX/nuttx/arch/arm/src/libarch.a(arm_unblocktask.o)
                0x00000000080026d0                up_unblock_task
 .text.up_use_stack
                0x0000000008002710       0x2e NuttX/nuttx/arch/arm/src/libarch.a(arm_usestack.o)
                0x0000000008002710                up_use_stack
 .text.up_idle  0x000000000800273e        0x2 NuttX/nuttx/arch/arm/src/libarch.a(arm_idle.o)
                0x000000000800273e                up_idle
 .text.arm_stack_color
                0x0000000008002740       0x2c NuttX/nuttx/arch/arm/src/libarch.a(arm_checkstack.o)
                0x0000000008002740                arm_stack_color
 .text          0x000000000800276c        0xa NuttX/nuttx/arch/arm/src/libarch.a(arm_fullcontextrestore.o)
                0x000000000800276c                arm_fullcontextrestore
 .text          0x0000000008002776        0xc NuttX/nuttx/arch/arm/src/libarch.a(arm_switchcontext.o)
                0x0000000008002776                arm_switchcontext
 .text.up_setusartint
                0x0000000008002782       0x28 NuttX/nuttx/arch/arm/src/libarch.a(stm32_serial.o)
 .text.up_restoreusartint
                0x00000000080027aa       0x24 NuttX/nuttx/arch/arm/src/libarch.a(stm32_serial.o)
 *fill*         0x00000000080027ce        0x2 ffecc2925d7d05c5
 .text.up_set_format
                0x00000000080027d0       0xe4 NuttX/nuttx/arch/arm/src/libarch.a(stm32_serial.o)
 .text.up_receive
                0x00000000080028b4       0x1a NuttX/nuttx/arch/arm/src/libarch.a(stm32_serial.o)
 .text.up_rxint
                0x00000000080028ce       0x3a NuttX/nuttx/arch/arm/src/libarch.a(stm32_serial.o)
 .text.up_rxavailable
                0x0000000008002908        0xc NuttX/nuttx/arch/arm/src/libarch.a(stm32_serial.o)
 .text.up_send  0x0000000008002914        0x8 NuttX/nuttx/arch/arm/src/libarch.a(stm32_serial.o)
 .text.up_txready
                0x000000000800291c        0xc NuttX/nuttx/arch/arm/src/libarch.a(stm32_serial.o)
 .text.up_txint
                0x0000000008002928       0x48 NuttX/nuttx/arch/arm/src/libarch.a(stm32_serial.o)
 .text.up_ioctl
                0x0000000008002970       0xc0 NuttX/nuttx/arch/arm/src/libarch.a(stm32_serial.o)
 .text.up_detach
                0x0000000008002a30       0x1c NuttX/nuttx/arch/arm/src/libarch.a(stm32_serial.o)
 .text.up_attach
                0x0000000008002a4c       0x24 NuttX/nuttx/arch/arm/src/libarch.a(stm32_serial.o)
 .text.up_rxflowcontrol
                0x0000000008002a70       0x20 NuttX/nuttx/arch/arm/src/libarch.a(stm32_serial.o)
 .text.up_interrupt
                0x0000000008002a90       0x46 NuttX/nuttx/arch/arm/src/libarch.a(stm32_serial.o)
 *fill*         0x0000000008002ad6        0x2 ffecc2925d7d05c5
 .text.up_setup
                0x0000000008002ad8       0x98 NuttX/nuttx/arch/arm/src/libarch.a(stm32_serial.o)
 .text.up_shutdown
                0x0000000008002b70       0x74 NuttX/nuttx/arch/arm/src/libarch.a(stm32_serial.o)
 .text.arm_serialinit
                0x0000000008002be4       0x38 NuttX/nuttx/arch/arm/src/libarch.a(stm32_serial.o)
                0x0000000008002be4                arm_serialinit
 .text.up_putc  0x0000000008002c1c        0x2 NuttX/nuttx/arch/arm/src/libarch.a(stm32_serial.o)
                0x0000000008002c1c                up_putc
 .text.stm32_req_complete
                0x0000000008002c1e       0x3c NuttX/nuttx/arch/arm/src/libarch.a(stm32_otgdev.o)
 .text.stm32_req_dispatch
                0x0000000008002c5a       0x32 NuttX/nuttx/arch/arm/src/libarch.a(stm32_otgdev.o)
 .text.stm32_epout_configure
                0x0000000008002c8c       0x68 NuttX/nuttx/arch/arm/src/libarch.a(stm32_otgdev.o)
 .text.stm32_epin_configure
                0x0000000008002cf4       0x60 NuttX/nuttx/arch/arm/src/libarch.a(stm32_otgdev.o)
 .text.stm32_ep_configure
                0x0000000008002d54       0x1c NuttX/nuttx/arch/arm/src/libarch.a(stm32_otgdev.o)
 .text.stm32_ep_clrstall
                0x0000000008002d70       0x38 NuttX/nuttx/arch/arm/src/libarch.a(stm32_otgdev.o)
 .text.stm32_ep_alloc
                0x0000000008002da8       0x70 NuttX/nuttx/arch/arm/src/libarch.a(stm32_otgdev.o)
 .text.stm32_ep_free
                0x0000000008002e18       0x38 NuttX/nuttx/arch/arm/src/libarch.a(stm32_otgdev.o)
 .text.stm32_getframe
                0x0000000008002e50       0x10 NuttX/nuttx/arch/arm/src/libarch.a(stm32_otgdev.o)
 .text.stm32_selfpowered
                0x0000000008002e60        0xc NuttX/nuttx/arch/arm/src/libarch.a(stm32_otgdev.o)
 .text.stm32_pullup
                0x0000000008002e6c       0x38 NuttX/nuttx/arch/arm/src/libarch.a(stm32_otgdev.o)
 .text.stm32_txfifo_flush
                0x0000000008002ea4       0x28 NuttX/nuttx/arch/arm/src/libarch.a(stm32_otgdev.o)
 .text.stm32_rxfifo_flush
                0x0000000008002ecc       0x28 NuttX/nuttx/arch/arm/src/libarch.a(stm32_otgdev.o)
 .text.stm32_req_cancel
                0x0000000008002ef4       0x2e NuttX/nuttx/arch/arm/src/libarch.a(stm32_otgdev.o)
 .text.stm32_ep_cancel
                0x0000000008002f22       0x2a NuttX/nuttx/arch/arm/src/libarch.a(stm32_otgdev.o)
 .text.stm32_ep_freereq
                0x0000000008002f4c        0x6 NuttX/nuttx/arch/arm/src/libarch.a(stm32_otgdev.o)
 .text.stm32_ep_allocreq
                0x0000000008002f52       0x18 NuttX/nuttx/arch/arm/src/libarch.a(stm32_otgdev.o)
 *fill*         0x0000000008002f6a        0x2 ffecc2925d7d05c5
 .text.stm32_wakeup
                0x0000000008002f6c       0x50 NuttX/nuttx/arch/arm/src/libarch.a(stm32_otgdev.o)
 .text.stm32_ep0out_ctrlsetup.isra.0
                0x0000000008002fbc       0x24 NuttX/nuttx/arch/arm/src/libarch.a(stm32_otgdev.o)
 .text.stm32_epin_transfer
                0x0000000008002fe0       0x94 NuttX/nuttx/arch/arm/src/libarch.a(stm32_otgdev.o)
 .text.stm32_epin_request
                0x0000000008003074       0xd8 NuttX/nuttx/arch/arm/src/libarch.a(stm32_otgdev.o)
 .text.stm32_rxfifo_read.isra.0
                0x000000000800314c       0x38 NuttX/nuttx/arch/arm/src/libarch.a(stm32_otgdev.o)
 .text.stm32_rxfifo_discard.isra.0
                0x0000000008003184       0x1c NuttX/nuttx/arch/arm/src/libarch.a(stm32_otgdev.o)
 .text.stm32_epout_request.part.0
                0x00000000080031a0       0x80 NuttX/nuttx/arch/arm/src/libarch.a(stm32_otgdev.o)
 .text.stm32_ep_submit
                0x0000000008003220       0x70 NuttX/nuttx/arch/arm/src/libarch.a(stm32_otgdev.o)
 .text.stm32_enablegonak.isra.0
                0x0000000008003290       0x18 NuttX/nuttx/arch/arm/src/libarch.a(stm32_otgdev.o)
 .text.stm32_ep_disable
                0x00000000080032a8       0xf4 NuttX/nuttx/arch/arm/src/libarch.a(stm32_otgdev.o)
 .text.stm32_ep0in_transmitzlp
                0x000000000800339c       0x20 NuttX/nuttx/arch/arm/src/libarch.a(stm32_otgdev.o)
 .text.stm32_epout_setstall
                0x00000000080033bc       0x40 NuttX/nuttx/arch/arm/src/libarch.a(stm32_otgdev.o)
 .text.stm32_ep_setstall
                0x00000000080033fc       0x2c NuttX/nuttx/arch/arm/src/libarch.a(stm32_otgdev.o)
 .text.stm32_ep_stall
                0x0000000008003428       0x2c NuttX/nuttx/arch/arm/src/libarch.a(stm32_otgdev.o)
 .text.stm32_epout_complete.constprop.0
                0x0000000008003454       0x34 NuttX/nuttx/arch/arm/src/libarch.a(stm32_otgdev.o)
 .text.stm32_usbreset.constprop.0
                0x0000000008003488       0xf0 NuttX/nuttx/arch/arm/src/libarch.a(stm32_otgdev.o)
 .text.stm32_ep0out_setup.part.0
                0x0000000008003578      0x354 NuttX/nuttx/arch/arm/src/libarch.a(stm32_otgdev.o)
 .text.stm32_usbinterrupt
                0x00000000080038cc      0x448 NuttX/nuttx/arch/arm/src/libarch.a(stm32_otgdev.o)
 .text.usbdev_register
                0x0000000008003d14       0x34 NuttX/nuttx/arch/arm/src/libarch.a(stm32_otgdev.o)
                0x0000000008003d14                usbdev_register
 .text.usbdev_unregister
                0x0000000008003d48       0x64 NuttX/nuttx/arch/arm/src/libarch.a(stm32_otgdev.o)
                0x0000000008003d48                usbdev_unregister
 .text.arm_usbuninitialize
                0x0000000008003dac       0xb0 NuttX/nuttx/arch/arm/src/libarch.a(stm32_otgdev.o)
                0x0000000008003dac                arm_usbuninitialize
 .text.arm_usbinitialize
                0x0000000008003e5c      0x2b4 NuttX/nuttx/arch/arm/src/libarch.a(stm32_otgdev.o)
                0x0000000008003e5c                arm_usbinitialize
 .text.up_mdelay
                0x0000000008004110       0x30 NuttX/nuttx/arch/arm/src/libarch.a(arm_mdelay.o)
                0x0000000008004110                up_mdelay
 .text.umm_initialize
                0x0000000008004140       0x1c NuttX/nuttx/mm/libmm.a(umm_initialize.o)
                0x0000000008004140                umm_initialize
 .text.free     0x000000000800415c       0x10 NuttX/nuttx/mm/libmm.a(umm_free.o)
                0x000000000800415c                free
 .text.malloc   0x000000000800416c       0x10 NuttX/nuttx/mm/libmm.a(umm_malloc.o)
                0x000000000800416c                malloc
 .text.memalign
                0x000000000800417c       0x10 NuttX/nuttx/mm/libmm.a(umm_memalign.o)
                0x000000000800417c                memalign
 .text.zalloc   0x000000000800418c       0x10 NuttX/nuttx/mm/libmm.a(umm_zalloc.o)
                0x000000000800418c                zalloc
 .text.mm_addregion
                0x000000000800419c       0x5c NuttX/nuttx/mm/libmm.a(mm_initialize.o)
                0x000000000800419c                mm_addregion
 .text.mm_initialize
                0x00000000080041f8       0x52 NuttX/nuttx/mm/libmm.a(mm_initialize.o)
                0x00000000080041f8                mm_initialize
 .text.mm_seminitialize
                0x000000000800424a        0x8 NuttX/nuttx/mm/libmm.a(mm_sem.o)
                0x000000000800424a                mm_seminitialize
 .text.mm_takesemaphore
                0x0000000008004252       0x40 NuttX/nuttx/mm/libmm.a(mm_sem.o)
                0x0000000008004252                mm_takesemaphore
 .text.mm_givesemaphore
                0x0000000008004292        0x4 NuttX/nuttx/mm/libmm.a(mm_sem.o)
                0x0000000008004292                mm_givesemaphore
 .text.mm_addfreechunk
                0x0000000008004296       0x36 NuttX/nuttx/mm/libmm.a(mm_addfreechunk.o)
                0x0000000008004296                mm_addfreechunk
 .text.mm_size2ndx
                0x00000000080042cc       0x1a NuttX/nuttx/mm/libmm.a(mm_size2ndx.o)
                0x00000000080042cc                mm_size2ndx
 .text.mm_free  0x00000000080042e6       0xb8 NuttX/nuttx/mm/libmm.a(mm_free.o)
                0x00000000080042e6                mm_free
 .text.mm_malloc
                0x000000000800439e       0xbc NuttX/nuttx/mm/libmm.a(mm_malloc.o)
                0x000000000800439e                mm_malloc
 .text.mm_memalign
                0x000000000800445a       0xd2 NuttX/nuttx/mm/libmm.a(mm_memalign.o)
                0x000000000800445a                mm_memalign
 .text.mm_zalloc
                0x000000000800452c       0x1a NuttX/nuttx/mm/libmm.a(mm_zalloc.o)
                0x000000000800452c                mm_zalloc
 .text.mm_shrinkchunk
                0x0000000008004546       0x64 NuttX/nuttx/mm/libmm.a(mm_shrinkchunk.o)
                0x0000000008004546                mm_shrinkchunk
 .text.__errno  0x00000000080045aa        0xa NuttX/nuttx/libs/libc/libc.a(lib_errno.o)
                0x00000000080045aa                __errno
 .text.lib_stream_initialize
                0x00000000080045b4       0x3c NuttX/nuttx/libs/libc/libc.a(lib_stream.o)
                0x00000000080045b4                lib_stream_initialize
 .text.lib_stream_release
                0x00000000080045f0       0x48 NuttX/nuttx/libs/libc/libc.a(lib_stream.o)
                0x00000000080045f0                lib_stream_release
 .text.lib_sem_initialize
                0x0000000008004638       0x1a NuttX/nuttx/libs/libc/libc.a(lib_filesem.o)
                0x0000000008004638                lib_sem_initialize
 .text.lib_take_semaphore
                0x0000000008004652       0x2e NuttX/nuttx/libs/libc/libc.a(lib_filesem.o)
                0x0000000008004652                lib_take_semaphore
 .text.lib_give_semaphore
                0x0000000008004680       0x1c NuttX/nuttx/libs/libc/libc.a(lib_filesem.o)
                0x0000000008004680                lib_give_semaphore
 .text.sq_addlast
                0x000000000800469c       0x14 NuttX/nuttx/libs/libc/libc.a(sq_addlast.o)
                0x000000000800469c                sq_addlast
 .text.sq_rem   0x00000000080046b0       0x2c NuttX/nuttx/libs/libc/libc.a(sq_rem.o)
                0x00000000080046b0                sq_rem
 .text.sq_remfirst
                0x00000000080046dc       0x14 NuttX/nuttx/libs/libc/libc.a(sq_remfirst.o)
                0x00000000080046dc                sq_remfirst
 .text.sq_remafter
                0x00000000080046f0       0x20 NuttX/nuttx/libs/libc/libc.a(sq_remafter.o)
                0x00000000080046f0                sq_remafter
 .text.dq_addlast
                0x0000000008004710       0x16 NuttX/nuttx/libs/libc/libc.a(dq_addlast.o)
                0x0000000008004710                dq_addlast
 .text.dq_addfirst
                0x0000000008004726       0x16 NuttX/nuttx/libs/libc/libc.a(dq_addfirst.o)
                0x0000000008004726                dq_addfirst
 .text.dq_rem   0x000000000800473c       0x1c NuttX/nuttx/libs/libc/libc.a(dq_rem.o)
                0x000000000800473c                dq_rem
 .text.nxtask_startup
                0x0000000008004758       0x54 NuttX/nuttx/libs/libc/libc.a(task_startup.o)
                0x0000000008004758                nxtask_startup
 .text.nxsem_init
                0x00000000080047ac       0x16 NuttX/nuttx/libs/libc/libc.a(sem_init.o)
                0x00000000080047ac                nxsem_init
 .text.sem_init
                0x00000000080047c2       0x20 NuttX/nuttx/libs/libc/libc.a(sem_init.o)
                0x00000000080047c2                sem_init
 .text.nxsig_addset
                0x00000000080047e2       0x1a NuttX/nuttx/libs/libc/libc.a(sig_addset.o)
                0x00000000080047e2                nxsig_addset
 .text.nxsig_delset
                0x00000000080047fc       0x1a NuttX/nuttx/libs/libc/libc.a(sig_delset.o)
                0x00000000080047fc                nxsig_delset
 .text.sigemptyset
                0x0000000008004816        0x8 NuttX/nuttx/libs/libc/libc.a(sig_emptyset.o)
                0x0000000008004816                sigemptyset
 .text.nxsig_ismember
                0x000000000800481e       0x14 NuttX/nuttx/libs/libc/libc.a(sig_ismember.o)
                0x000000000800481e                nxsig_ismember
 .text.printf   0x0000000008004832       0x26 NuttX/nuttx/libs/libc/libc.a(lib_printf.o)
                0x0000000008004832                printf
 .text.lib_flushall
                0x0000000008004858       0x3c NuttX/nuttx/libs/libc/libc.a(lib_libflushall.o)
                0x0000000008004858                lib_flushall
 .text.lib_fflush
                0x0000000008004894       0x90 NuttX/nuttx/libs/libc/libc.a(lib_libfflush.o)
                0x0000000008004894                lib_fflush
 .text.vfprintf
                0x0000000008004924       0x30 NuttX/nuttx/libs/libc/libc.a(lib_vfprintf.o)
                0x0000000008004924                vfprintf
 .text.stdoutstream_flush
                0x0000000008004954        0x8 NuttX/nuttx/libs/libc/libc.a(lib_stdoutstream.o)
 .text.stdoutstream_putc
                0x000000000800495c       0x26 NuttX/nuttx/libs/libc/libc.a(lib_stdoutstream.o)
 *fill*         0x0000000008004982        0x2 ffecc2925d7d05c5
 .text.lib_stdoutstream
                0x0000000008004984       0x34 NuttX/nuttx/libs/libc/libc.a(lib_stdoutstream.o)
                0x0000000008004984                lib_stdoutstream
 .text.memset   0x00000000080049b8       0x82 NuttX/nuttx/libs/libc/libc.a(lib_memset.o)
                0x00000000080049b8                memset
 .text.strcpy   0x0000000008004a3a       0x10 NuttX/nuttx/libs/libc/libc.a(lib_strcpy.o)
                0x0000000008004a3a                strcpy
 .text.strlen   0x0000000008004a4a       0x10 NuttX/nuttx/libs/libc/libc.a(lib_strlen.o)
                0x0000000008004a4a                strlen
 .text.strncpy  0x0000000008004a5a       0x24 NuttX/nuttx/libs/libc/libc.a(lib_strncpy.o)
                0x0000000008004a5a                strncpy
 *fill*         0x0000000008004a7e        0x2 ffecc2925d7d05c5
 .text.cfsetspeed
                0x0000000008004a80       0x40 NuttX/nuttx/libs/libc/libc.a(lib_cfspeed.o)
                0x0000000008004a80                cfsetspeed
 .text.cfgetspeed
                0x0000000008004ac0        0x4 NuttX/nuttx/libs/libc/libc.a(lib_cfspeed.o)
                0x0000000008004ac0                cfgetspeed
 .text.tls_get_info
                0x0000000008004ac4       0x18 NuttX/nuttx/libs/libc/libc.a(tls_getinfo.o)
                0x0000000008004ac4                tls_get_info
 .text.stream_semtake
                0x0000000008004adc       0x10 NuttX/nuttx/libs/libc/libc.a(lib_streamsem.o)
                0x0000000008004adc                stream_semtake
 .text.stream_semgive
                0x0000000008004aec        0x4 NuttX/nuttx/libs/libc/libc.a(lib_streamsem.o)
                0x0000000008004aec                stream_semgive
 .text.lib_noflush
                0x0000000008004af0        0x4 NuttX/nuttx/libs/libc/libc.a(lib_libnoflush.o)
                0x0000000008004af0                lib_noflush
 .text.lib_vsprintf
                0x0000000008004af4      0x814 NuttX/nuttx/libs/libc/libc.a(lib_libvsprintf.o)
                0x0000000008004af4                lib_vsprintf
 .text.__ultoa_invert
                0x0000000008005308       0x56 NuttX/nuttx/libs/libc/libc.a(lib_ultoa_invert.o)
                0x0000000008005308                __ultoa_invert
 *fill*         0x000000000800535e        0x2 ffecc2925d7d05c5
 .text.__dtoa_engine
                0x0000000008005360      0x1a4 NuttX/nuttx/libs/libc/libc.a(lib_dtoa_engine.o)
                0x0000000008005360                __dtoa_engine
 .text.fputc    0x0000000008005504       0x3e NuttX/nuttx/libs/libc/libc.a(lib_fputc.o)
                0x0000000008005504                fputc
 .text.strnlen  0x0000000008005542       0x1a NuttX/nuttx/libs/libc/libc.a(lib_strnlen.o)
                0x0000000008005542                strnlen
 .text.lib_fwrite
                0x000000000800555c       0xb2 NuttX/nuttx/libs/libc/libc.a(lib_libfwrite.o)
                0x000000000800555c                lib_fwrite
 .text.lib_rdflush
                0x000000000800560e       0x5a NuttX/nuttx/libs/libc/libc.a(lib_rdflush.o)
                0x000000000800560e                lib_rdflush
 .text.fseek    0x0000000008005668       0x3c NuttX/nuttx/libs/libc/libc.a(lib_fseek.o)
                0x0000000008005668                fseek
 .text.lib_wrflush
                0x00000000080056a4       0x16 NuttX/nuttx/libs/libc/libc.a(lib_wrflush.o)
                0x00000000080056a4                lib_wrflush
 .text.cinit    0x00000000080056ba       0x12 platforms/nuttx/src/bootloader/common/libbootloader.a(bl.c.obj)
                0x00000000080056ba                cinit
 .text.cfini    0x00000000080056cc        0xe platforms/nuttx/src/bootloader/common/libbootloader.a(bl.c.obj)
                0x00000000080056cc                cfini
 *fill*         0x00000000080056da        0x2 ffecc2925d7d05c5
 .text.cin      0x00000000080056dc       0x48 platforms/nuttx/src/bootloader/common/libbootloader.a(bl.c.obj)
                0x00000000080056dc                cin
 .text.cin_wait
                0x0000000008005724       0x2c platforms/nuttx/src/bootloader/common/libbootloader.a(bl.c.obj)
 .text.wait_for_eoc
                0x0000000008005750       0x10 platforms/nuttx/src/bootloader/common/libbootloader.a(bl.c.obj)
 .text.cout     0x0000000008005760       0x2c platforms/nuttx/src/bootloader/common/libbootloader.a(bl.c.obj)
                0x0000000008005760                cout
 .text.jump_to_app
                0x000000000800578c       0x58 platforms/nuttx/src/bootloader/common/libbootloader.a(bl.c.obj)
                0x000000000800578c                jump_to_app
 .text.sys_tick_handler
                0x00000000080057e4       0x3c platforms/nuttx/src/bootloader/common/libbootloader.a(bl.c.obj)
                0x00000000080057e4                sys_tick_handler
 .text.delay    0x0000000008005820       0x10 platforms/nuttx/src/bootloader/common/libbootloader.a(bl.c.obj)
                0x0000000008005820                delay
 .text.bootloader
                0x0000000008005830      0x4e8 platforms/nuttx/src/bootloader/common/libbootloader.a(bl.c.obj)
                0x0000000008005830                bootloader
 .text.usb_cinit
                0x0000000008005d18       0x54 platforms/nuttx/src/bootloader/common/lib/libbootloader_lib.a(cdcacm.c.obj)
                0x0000000008005d18                usb_cinit
 .text.usb_cfini
                0x0000000008005d6c       0x18 platforms/nuttx/src/bootloader/common/lib/libbootloader_lib.a(cdcacm.c.obj)
                0x0000000008005d6c                usb_cfini
 .text.usb_cin  0x0000000008005d84       0x4c platforms/nuttx/src/bootloader/common/lib/libbootloader_lib.a(cdcacm.c.obj)
                0x0000000008005d84                usb_cin
 .text.usb_cout
                0x0000000008005dd0       0x10 platforms/nuttx/src/bootloader/common/lib/libbootloader_lib.a(cdcacm.c.obj)
                0x0000000008005dd0                usb_cout
 .text.uart_cinit
                0x0000000008005de0       0x8c platforms/nuttx/src/bootloader/common/lib/libbootloader_lib.a(uart.c.obj)
                0x0000000008005de0                uart_cinit
 .text.uart_cfini
                0x0000000008005e6c       0x18 platforms/nuttx/src/bootloader/common/lib/libbootloader_lib.a(uart.c.obj)
                0x0000000008005e6c                uart_cfini
 .text.uart_cin
                0x0000000008005e84       0x2c platforms/nuttx/src/bootloader/common/lib/libbootloader_lib.a(uart.c.obj)
                0x0000000008005e84                uart_cin
 .text.uart_cout
                0x0000000008005eb0       0x34 platforms/nuttx/src/bootloader/common/lib/libbootloader_lib.a(uart.c.obj)
                0x0000000008005eb0                uart_cout
 .text.boardctl
                0x0000000008005ee4       0x70 NuttX/nuttx/boards/libboards.a(boardctl.o)
                0x0000000008005ee4                boardctl
 .text.uart_putc
                0x0000000008005f54       0x22 NuttX/nuttx/drivers/libdrivers.a(serial.o)
 .text.uart_putxmitchar
                0x0000000008005f76       0xb0 NuttX/nuttx/drivers/libdrivers.a(serial.o)
 .text.uart_read
                0x0000000008006026      0x15e NuttX/nuttx/drivers/libdrivers.a(serial.o)
 .text.uart_open
                0x0000000008006184       0x96 NuttX/nuttx/drivers/libdrivers.a(serial.o)
 .text.uart_pollnotify
                0x000000000800621a       0x3e NuttX/nuttx/drivers/libdrivers.a(serial.o)
 .text.uart_poll
                0x0000000008006258       0xca NuttX/nuttx/drivers/libdrivers.a(serial.o)
 *fill*         0x0000000008006322        0x2 ffecc2925d7d05c5
 .text.uart_tcdrain
                0x0000000008006324       0xc0 NuttX/nuttx/drivers/libdrivers.a(serial.o)
 .text.uart_write
                0x00000000080063e4      0x126 NuttX/nuttx/drivers/libdrivers.a(serial.o)
 *fill*         0x000000000800650a        0x2 ffecc2925d7d05c5
 .text.uart_register
                0x000000000800650c       0x90 NuttX/nuttx/drivers/libdrivers.a(serial.o)
                0x000000000800650c                uart_register
 .text.uart_datareceived
                0x000000000800659c       0x20 NuttX/nuttx/drivers/libdrivers.a(serial.o)
                0x000000000800659c                uart_datareceived
 .text.uart_datasent
                0x00000000080065bc       0x20 NuttX/nuttx/drivers/libdrivers.a(serial.o)
                0x00000000080065bc                uart_datasent
 .text.uart_ioctl
                0x00000000080065dc      0x1b0 NuttX/nuttx/drivers/libdrivers.a(serial.o)
 .text.uart_connected
                0x000000000800678c       0x50 NuttX/nuttx/drivers/libdrivers.a(serial.o)
                0x000000000800678c                uart_connected
 .text.uart_reset_sem
                0x00000000080067dc       0x38 NuttX/nuttx/drivers/libdrivers.a(serial.o)
                0x00000000080067dc                uart_reset_sem
 .text.uart_close
                0x0000000008006814       0x80 NuttX/nuttx/drivers/libdrivers.a(serial.o)
 .text.uart_xmitchars
                0x0000000008006894       0x6c NuttX/nuttx/drivers/libdrivers.a(serial_io.o)
                0x0000000008006894                uart_xmitchars
 .text.uart_recvchars
                0x0000000008006900       0xb6 NuttX/nuttx/drivers/libdrivers.a(serial_io.o)
                0x0000000008006900                uart_recvchars
 *fill*         0x00000000080069b6        0x2 ffecc2925d7d05c5
 .text.syslog_flush
                0x00000000080069b8       0x18 NuttX/nuttx/drivers/libdrivers.a(syslog_flush.o)
                0x00000000080069b8                syslog_flush
 .text.syslog_initialize
                0x00000000080069d0        0x4 NuttX/nuttx/drivers/libdrivers.a(syslog_initialize.o)
                0x00000000080069d0                syslog_initialize
 .text.cdcacm_requeue_rdrequest
                0x00000000080069d4       0x12 NuttX/nuttx/drivers/libdrivers.a(cdcacm.o)
 .text.cdcacm_ep0incomplete
                0x00000000080069e6        0x2 NuttX/nuttx/drivers/libdrivers.a(cdcacm.o)
 .text.cdcuart_setup
                0x00000000080069e8       0x12 NuttX/nuttx/drivers/libdrivers.a(cdcacm.o)
 .text.cdcuart_shutdown
                0x00000000080069fa        0x2 NuttX/nuttx/drivers/libdrivers.a(cdcacm.o)
 .text.cdcuart_attach
                0x00000000080069fc        0x4 NuttX/nuttx/drivers/libdrivers.a(cdcacm.o)
 .text.cdcuart_txempty
                0x0000000008006a00       0x10 NuttX/nuttx/drivers/libdrivers.a(cdcacm.o)
 .text.cdcacm_allocreq
                0x0000000008006a10       0x2e NuttX/nuttx/drivers/libdrivers.a(cdcacm.o)
 .text.cdcacm_resume
                0x0000000008006a3e       0x10 NuttX/nuttx/drivers/libdrivers.a(cdcacm.o)
 .text.cdcacm_suspend
                0x0000000008006a4e        0x8 NuttX/nuttx/drivers/libdrivers.a(cdcacm.o)
 .text.cdcacm_serialstate
                0x0000000008006a56       0x7e NuttX/nuttx/drivers/libdrivers.a(cdcacm.o)
 .text.cdcacm_release_rxpending
                0x0000000008006ad4      0x104 NuttX/nuttx/drivers/libdrivers.a(cdcacm.o)
 .text.cdcacm_rdcomplete
                0x0000000008006bd8       0x56 NuttX/nuttx/drivers/libdrivers.a(cdcacm.o)
 .text.cdcacm_rxtimeout
                0x0000000008006c2e        0x4 NuttX/nuttx/drivers/libdrivers.a(cdcacm.o)
 .text.cdcuart_rxflowcontrol
                0x0000000008006c32       0x6c NuttX/nuttx/drivers/libdrivers.a(cdcacm.o)
 .text.cdcuart_rxint
                0x0000000008006c9e       0x3a NuttX/nuttx/drivers/libdrivers.a(cdcacm.o)
 .text.cdcacm_sndpacket
                0x0000000008006cd8       0xfc NuttX/nuttx/drivers/libdrivers.a(cdcacm.o)
 .text.cdcacm_wrcomplete
                0x0000000008006dd4       0x48 NuttX/nuttx/drivers/libdrivers.a(cdcacm.o)
 .text.cdcuart_txint
                0x0000000008006e1c       0x16 NuttX/nuttx/drivers/libdrivers.a(cdcacm.o)
 .text.cdcuart_ioctl
                0x0000000008006e32      0x22a NuttX/nuttx/drivers/libdrivers.a(cdcacm.o)
 .text.cdcacm_freereq
                0x000000000800705c       0x22 NuttX/nuttx/drivers/libdrivers.a(cdcacm.o)
 .text.cdcacm_resetconfig
                0x000000000800707e       0x32 NuttX/nuttx/drivers/libdrivers.a(cdcacm.o)
 .text.cdcacm_disconnect
                0x00000000080070b0       0x48 NuttX/nuttx/drivers/libdrivers.a(cdcacm.o)
 .text.cdcacm_unbind
                0x00000000080070f8       0xc2 NuttX/nuttx/drivers/libdrivers.a(cdcacm.o)
 *fill*         0x00000000080071ba        0x2 ffecc2925d7d05c5
 .text.cdcacm_bind
                0x00000000080071bc      0x124 NuttX/nuttx/drivers/libdrivers.a(cdcacm.o)
 .text.cdcacm_epconfigure.constprop.0
                0x00000000080072e0       0x22 NuttX/nuttx/drivers/libdrivers.a(cdcacm.o)
 *fill*         0x0000000008007302        0x2 ffecc2925d7d05c5
 .text.cdcacm_setconfig
                0x0000000008007304       0xb4 NuttX/nuttx/drivers/libdrivers.a(cdcacm.o)
 .text.cdcacm_setup
                0x00000000080073b8      0x1e4 NuttX/nuttx/drivers/libdrivers.a(cdcacm.o)
 .text.cdcuart_detach
                0x000000000800759c        0x2 NuttX/nuttx/drivers/libdrivers.a(cdcacm.o)
 *fill*         0x000000000800759e        0x2 ffecc2925d7d05c5
 .text.cdcacm_initialize
                0x00000000080075a0      0x10c NuttX/nuttx/drivers/libdrivers.a(cdcacm.o)
                0x00000000080075a0                cdcacm_initialize
 .text.cdcacm_uninitialize
                0x00000000080076ac       0x38 NuttX/nuttx/drivers/libdrivers.a(cdcacm.o)
                0x00000000080076ac                cdcacm_uninitialize
 .text.cdcacm_mkstrdesc
                0x00000000080076e4       0x74 NuttX/nuttx/drivers/libdrivers.a(cdcacm_desc.o)
                0x00000000080076e4                cdcacm_mkstrdesc
 .text.cdcacm_getdevdesc
                0x0000000008007758        0x8 NuttX/nuttx/drivers/libdrivers.a(cdcacm_desc.o)
                0x0000000008007758                cdcacm_getdevdesc
 .text.cdcacm_copy_epdesc
                0x0000000008007760       0x6c NuttX/nuttx/drivers/libdrivers.a(cdcacm_desc.o)
                0x0000000008007760                cdcacm_copy_epdesc
 .text.cdcacm_mkcfgdesc
                0x00000000080077cc      0x122 NuttX/nuttx/drivers/libdrivers.a(cdcacm_desc.o)
                0x00000000080077cc                cdcacm_mkcfgdesc
 .text.devnull_read
                0x00000000080078ee        0x4 NuttX/nuttx/drivers/libdrivers.a(dev_null.o)
 .text.devnull_write
                0x00000000080078f2        0x4 NuttX/nuttx/drivers/libdrivers.a(dev_null.o)
 .text.devnull_poll
                0x00000000080078f6       0x1c NuttX/nuttx/drivers/libdrivers.a(dev_null.o)
 *fill*         0x0000000008007912        0x2 ffecc2925d7d05c5
 .text.devnull_register
                0x0000000008007914       0x18 NuttX/nuttx/drivers/libdrivers.a(dev_null.o)
                0x0000000008007914                devnull_register
 .text.syslog_default_putc
                0x000000000800792c        0x6 NuttX/nuttx/drivers/libdrivers.a(syslog_channel.o)
 *fill*         0x0000000008007932        0x2 ffecc2925d7d05c5
 .text.syslog_default_write
                0x0000000008007934       0x2c NuttX/nuttx/drivers/libdrivers.a(syslog_channel.o)
 .text.fs_initialize
                0x0000000008007960        0x4 NuttX/nuttx/fs/libfs.a(fs_initialize.o)
                0x0000000008007960                fs_initialize
 .text.files_extend
                0x0000000008007964       0x52 NuttX/nuttx/fs/libfs.a(fs_files.o)
 .text.files_initlist
                0x00000000080079b6        0x8 NuttX/nuttx/fs/libfs.a(fs_files.o)
                0x00000000080079b6                files_initlist
 .text.files_releaselist
                0x00000000080079be       0x3a NuttX/nuttx/fs/libfs.a(fs_files.o)
                0x00000000080079be                files_releaselist
 .text.files_allocate
                0x00000000080079f8       0xfa NuttX/nuttx/fs/libfs.a(fs_files.o)
                0x00000000080079f8                files_allocate
 .text.fs_getfilep
                0x0000000008007af2       0x5e NuttX/nuttx/fs/libfs.a(fs_files.o)
                0x0000000008007af2                fs_getfilep
 .text.nx_close
                0x0000000008007b50       0x74 NuttX/nuttx/fs/libfs.a(fs_files.o)
                0x0000000008007b50                nx_close
 .text.close    0x0000000008007bc4       0x1a NuttX/nuttx/fs/libfs.a(fs_files.o)
                0x0000000008007bc4                close
 *fill*         0x0000000008007bde        0x2 ffecc2925d7d05c5
 .text.inode_initialize
                0x0000000008007be0       0x24 NuttX/nuttx/fs/libfs.a(fs_inode.o)
                0x0000000008007be0                inode_initialize
 .text.inode_semtake
                0x0000000008007c04       0x34 NuttX/nuttx/fs/libfs.a(fs_inode.o)
                0x0000000008007c04                inode_semtake
 .text.inode_semgive
                0x0000000008007c38       0x24 NuttX/nuttx/fs/libfs.a(fs_inode.o)
                0x0000000008007c38                inode_semgive
 .text.inode_alloc.isra.0
                0x0000000008007c5c       0x3c NuttX/nuttx/fs/libfs.a(fs_inodereserve.o)
 .text.inode_root_reserve
                0x0000000008007c98       0x18 NuttX/nuttx/fs/libfs.a(fs_inodereserve.o)
                0x0000000008007c98                inode_root_reserve
 .text.inode_reserve
                0x0000000008007cb0       0xa4 NuttX/nuttx/fs/libfs.a(fs_inodereserve.o)
                0x0000000008007cb0                inode_reserve
 .text.inode_nextname
                0x0000000008007d54       0x1c NuttX/nuttx/fs/libfs.a(fs_inodesearch.o)
                0x0000000008007d54                inode_nextname
 .text.inode_search
                0x0000000008007d70       0xb8 NuttX/nuttx/fs/libfs.a(fs_inodesearch.o)
                0x0000000008007d70                inode_search
 .text.file_close
                0x0000000008007e28       0x2c NuttX/nuttx/fs/libfs.a(fs_close.o)
                0x0000000008007e28                file_close
 .text.file_dup2
                0x0000000008007e54       0x92 NuttX/nuttx/fs/libfs.a(fs_dup2.o)
                0x0000000008007e54                file_dup2
 .text.file_seek
                0x0000000008007ee6       0x40 NuttX/nuttx/fs/libfs.a(fs_lseek.o)
                0x0000000008007ee6                file_seek
 .text.nx_seek  0x0000000008007f26       0x1e NuttX/nuttx/fs/libfs.a(fs_lseek.o)
                0x0000000008007f26                nx_seek
 .text.lseek    0x0000000008007f44       0x1a NuttX/nuttx/fs/libfs.a(fs_lseek.o)
                0x0000000008007f44                lseek
 .text.inode_checkflags
                0x0000000008007f5e       0x28 NuttX/nuttx/fs/libfs.a(fs_open.o)
                0x0000000008007f5e                inode_checkflags
 .text.file_vopen
                0x0000000008007f86       0xc2 NuttX/nuttx/fs/libfs.a(fs_open.o)
 .text.nx_vopen
                0x0000000008008048       0x40 NuttX/nuttx/fs/libfs.a(fs_open.o)
 .text.open     0x0000000008008088       0x2c NuttX/nuttx/fs/libfs.a(fs_open.o)
                0x0000000008008088                open
 .text.file_read
                0x00000000080080b4       0x2a NuttX/nuttx/fs/libfs.a(fs_read.o)
                0x00000000080080b4                file_read
 .text.nx_read  0x00000000080080de       0x1e NuttX/nuttx/fs/libfs.a(fs_read.o)
                0x00000000080080de                nx_read
 .text.read     0x00000000080080fc       0x1a NuttX/nuttx/fs/libfs.a(fs_read.o)
                0x00000000080080fc                read
 .text.file_write
                0x0000000008008116       0x2a NuttX/nuttx/fs/libfs.a(fs_write.o)
                0x0000000008008116                file_write
 .text.nx_write
                0x0000000008008140       0x26 NuttX/nuttx/fs/libfs.a(fs_write.o)
                0x0000000008008140                nx_write
 .text.write    0x0000000008008166       0x1a NuttX/nuttx/fs/libfs.a(fs_write.o)
                0x0000000008008166                write
 .text.fs_fdopen
                0x0000000008008180       0xd2 NuttX/nuttx/fs/libfs.a(fs_fdopen.o)
                0x0000000008008180                fs_fdopen
 .text.register_driver
                0x0000000008008252       0x40 NuttX/nuttx/fs/libfs.a(fs_registerdriver.o)
                0x0000000008008252                register_driver
 .text.unregister_driver
                0x0000000008008292       0x1c NuttX/nuttx/fs/libfs.a(fs_unregisterdriver.o)
                0x0000000008008292                unregister_driver
 .text.inode_addref
                0x00000000080082ae       0x20 NuttX/nuttx/fs/libfs.a(fs_inodeaddref.o)
                0x00000000080082ae                inode_addref
 .text.inode_find
                0x00000000080082ce       0x26 NuttX/nuttx/fs/libfs.a(fs_inodefind.o)
                0x00000000080082ce                inode_find
 .text.inode_release
                0x00000000080082f4       0x3c NuttX/nuttx/fs/libfs.a(fs_inoderelease.o)
                0x00000000080082f4                inode_release
 .text.inode_unlink
                0x0000000008008330       0x4a NuttX/nuttx/fs/libfs.a(fs_inoderemove.o)
                0x0000000008008330                inode_unlink
 .text.inode_remove
                0x000000000800837a       0x2a NuttX/nuttx/fs/libfs.a(fs_inoderemove.o)
                0x000000000800837a                inode_remove
 .text.inode_free
                0x00000000080083a4       0x1e NuttX/nuttx/fs/libfs.a(fs_inodefree.o)
                0x00000000080083a4                inode_free
 .text.clock_initialize
                0x00000000080083c2        0x4 NuttX/nuttx/sched/libsched.a(clock_initialize.o)
                0x00000000080083c2                clock_initialize
 *fill*         0x00000000080083c6        0x2 ffecc2925d7d05c5
 .text.clock_timer
                0x00000000080083c8       0x10 NuttX/nuttx/sched/libsched.a(clock_initialize.o)
                0x00000000080083c8                clock_timer
 .text.nxsched_get_files
                0x00000000080083d8       0x10 NuttX/nuttx/sched/libsched.a(sched_getfiles.o)
                0x00000000080083d8                nxsched_get_files
 .text.nxsched_add_readytorun
                0x00000000080083e8       0x48 NuttX/nuttx/sched/libsched.a(sched_addreadytorun.o)
                0x00000000080083e8                nxsched_add_readytorun
 .text.nxsched_remove_readytorun
                0x0000000008008430       0x28 NuttX/nuttx/sched/libsched.a(sched_removereadytorun.o)
                0x0000000008008430                nxsched_remove_readytorun
 .text.nxsched_merge_pending
                0x0000000008008458       0x58 NuttX/nuttx/sched/libsched.a(sched_mergepending.o)
                0x0000000008008458                nxsched_merge_pending
 .text.nxsched_get_streams
                0x00000000080084b0       0x10 NuttX/nuttx/sched/libsched.a(sched_getstreams.o)
                0x00000000080084b0                nxsched_get_streams
 .text.sched_idletask
                0x00000000080084c0       0x18 NuttX/nuttx/sched/libsched.a(sched_idletask.o)
                0x00000000080084c0                sched_idletask
 .text.nxsched_self
                0x00000000080084d8        0xc NuttX/nuttx/sched/libsched.a(sched_self.o)
                0x00000000080084d8                nxsched_self
 .text.nxsched_get_stackinfo
                0x00000000080084e4       0x44 NuttX/nuttx/sched/libsched.a(sched_get_stackinfo.o)
                0x00000000080084e4                nxsched_get_stackinfo
 .text.nxsem_wait
                0x0000000008008528       0x60 NuttX/nuttx/sched/libsched.a(sem_wait.o)
                0x0000000008008528                nxsem_wait
 .text.nxsem_wait_uninterruptible
                0x0000000008008588       0x10 NuttX/nuttx/sched/libsched.a(sem_wait.o)
                0x0000000008008588                nxsem_wait_uninterruptible
 .text.sem_wait
                0x0000000008008598       0x1c NuttX/nuttx/sched/libsched.a(sem_wait.o)
                0x0000000008008598                sem_wait
 .text.nxsem_trywait
                0x00000000080085b4       0x4c NuttX/nuttx/sched/libsched.a(sem_trywait.o)
                0x00000000080085b4                nxsem_trywait
 .text.sem_trywait
                0x0000000008008600       0x1a NuttX/nuttx/sched/libsched.a(sem_trywait.o)
                0x0000000008008600                sem_trywait
 *fill*         0x000000000800861a        0x2 ffecc2925d7d05c5
 .text.nxsem_post
                0x000000000800861c       0x70 NuttX/nuttx/sched/libsched.a(sem_post.o)
                0x000000000800861c                nxsem_post
 .text.sem_post
                0x000000000800868c       0x1a NuttX/nuttx/sched/libsched.a(sem_post.o)
                0x000000000800868c                sem_post
 .text.nxsem_reset
                0x00000000080086a6       0x4e NuttX/nuttx/sched/libsched.a(sem_reset.o)
                0x00000000080086a6                nxsem_reset
 .text.nxsig_kill
                0x00000000080086f4       0x42 NuttX/nuttx/sched/libsched.a(sig_kill.o)
                0x00000000080086f4                nxsig_kill
 *fill*         0x0000000008008736        0x2 ffecc2925d7d05c5
 .text.nxsig_usleep
                0x0000000008008738       0x2c NuttX/nuttx/sched/libsched.a(sig_usleep.o)
                0x0000000008008738                nxsig_usleep
 .text.nxtask_exit
                0x0000000008008764       0x48 NuttX/nuttx/sched/libsched.a(task_exit.o)
                0x0000000008008764                nxtask_exit
 .text.getpid   0x00000000080087ac       0x1c NuttX/nuttx/sched/libsched.a(task_getpid.o)
                0x00000000080087ac                getpid
 .text.nxtask_terminate
                0x00000000080087c8       0x5c NuttX/nuttx/sched/libsched.a(task_terminate.o)
                0x00000000080087c8                nxtask_terminate
 .text.wd_start
                0x0000000008008824       0xb8 NuttX/nuttx/sched/libsched.a(wd_start.o)
                0x0000000008008824                wd_start
 .text.wd_timer
                0x00000000080088dc       0x44 NuttX/nuttx/sched/libsched.a(wd_start.o)
                0x00000000080088dc                wd_timer
 .text.nxsig_nanosleep
                0x0000000008008920       0x94 NuttX/nuttx/sched/libsched.a(sig_nanosleep.o)
                0x0000000008008920                nxsig_nanosleep
 .text.nxsig_timeout
                0x00000000080089b4       0x1e NuttX/nuttx/sched/libsched.a(sig_timedwait.o)
 *fill*         0x00000000080089d2        0x2 ffecc2925d7d05c5
 .text.nxsig_timedwait
                0x00000000080089d4      0x100 NuttX/nuttx/sched/libsched.a(sig_timedwait.o)
                0x00000000080089d4                nxsig_timedwait
 .text.stm32_timerisr
                0x0000000008008ad4        0xa NuttX/nuttx/arch/arm/src/libarch.a(stm32_timerisr.o)
 *fill*         0x0000000008008ade        0x2 ffecc2925d7d05c5
 .text.up_timer_initialize
                0x0000000008008ae0       0x34 NuttX/nuttx/arch/arm/src/libarch.a(stm32_timerisr.o)
                0x0000000008008ae0                up_timer_initialize
 .text.realloc  0x0000000008008b14       0x10 NuttX/nuttx/mm/libmm.a(umm_realloc.o)
                0x0000000008008b14                realloc
 .text.mm_realloc
                0x0000000008008b24      0x1b4 NuttX/nuttx/mm/libmm.a(mm_realloc.o)
                0x0000000008008b24                mm_realloc
 .text.getumask
                0x0000000008008cd8        0xa NuttX/nuttx/libs/libc/libc.a(lib_umask.o)
                0x0000000008008cd8                getumask
 .text.sq_addfirst
                0x0000000008008ce2        0xc NuttX/nuttx/libs/libc/libc.a(sq_addfirst.o)
                0x0000000008008ce2                sq_addfirst
 .text.sq_addafter
                0x0000000008008cee       0x1c NuttX/nuttx/libs/libc/libc.a(sq_addafter.o)
                0x0000000008008cee                sq_addafter
 *fill*         0x0000000008008d0a        0x2 ffecc2925d7d05c5
 .text.clock_ticks2time
                0x0000000008008d0c       0x1c NuttX/nuttx/libs/libc/libc.a(clock_ticks2time.o)
                0x0000000008008d0c                clock_ticks2time
 .text.clock_time2ticks
                0x0000000008008d28       0x38 NuttX/nuttx/libs/libc/libc.a(clock_time2ticks.o)
                0x0000000008008d28                clock_time2ticks
 .text.nxsem_get_value
                0x0000000008008d60       0x14 NuttX/nuttx/libs/libc/libc.a(sem_getvalue.o)
                0x0000000008008d60                nxsem_get_value
 .text.nxsem_set_protocol
                0x0000000008008d74       0x14 NuttX/nuttx/libs/libc/libc.a(sem_setprotocol.o)
                0x0000000008008d74                nxsem_set_protocol
 .text.asprintf
                0x0000000008008d88       0x1a NuttX/nuttx/libs/libc/libc.a(lib_asprintf.o)
                0x0000000008008d88                asprintf
 .text.snprintf
                0x0000000008008da2       0x2e NuttX/nuttx/libs/libc/libc.a(lib_snprintf.o)
                0x0000000008008da2                snprintf
 .text.vasprintf
                0x0000000008008dd0       0x4c NuttX/nuttx/libs/libc/libc.a(lib_vasprintf.o)
                0x0000000008008dd0                vasprintf
 .text.memoutstream_putc
                0x0000000008008e1c       0x1a NuttX/nuttx/libs/libc/libc.a(lib_memoutstream.o)
 *fill*         0x0000000008008e36        0x2 ffecc2925d7d05c5
 .text.lib_memoutstream
                0x0000000008008e38       0x20 NuttX/nuttx/libs/libc/libc.a(lib_memoutstream.o)
                0x0000000008008e38                lib_memoutstream
 .text.nulloutstream_putc
                0x0000000008008e58        0x8 NuttX/nuttx/libs/libc/libc.a(lib_nulloutstream.o)
 .text.lib_nulloutstream
                0x0000000008008e60       0x18 NuttX/nuttx/libs/libc/libc.a(lib_nulloutstream.o)
                0x0000000008008e60                lib_nulloutstream
 .text.atol     0x0000000008008e78        0x8 NuttX/nuttx/libs/libc/libc.a(lib_atol.o)
                0x0000000008008e78                atol
 .text.strtol   0x0000000008008e80       0x74 NuttX/nuttx/libs/libc/libc.a(lib_strtol.o)
                0x0000000008008e80                strtol
 .text.strtoul  0x0000000008008ef4       0xba NuttX/nuttx/libs/libc/libc.a(lib_strtoul.o)
                0x0000000008008ef4                strtoul
 .text.lib_checkbase
                0x0000000008008fae       0x5c NuttX/nuttx/libs/libc/libc.a(lib_checkbase.o)
                0x0000000008008fae                lib_checkbase
 .text.lib_isbasedigit
                0x000000000800900a       0x4c NuttX/nuttx/libs/libc/libc.a(lib_isbasedigit.o)
                0x000000000800900a                lib_isbasedigit
 .text.lib_skipspace
                0x0000000008009056       0x18 NuttX/nuttx/libs/libc/libc.a(lib_skipspace.o)
                0x0000000008009056                lib_skipspace
 .text.strdup   0x000000000800906e       0x1e NuttX/nuttx/libs/libc/libc.a(lib_strdup.o)
                0x000000000800906e                strdup
 .text.strtok   0x000000000800908c        0xc NuttX/nuttx/libs/libc/libc.a(lib_strtok.o)
                0x000000000800908c                strtok
 .text.strtok_r
                0x0000000008009098       0x4c NuttX/nuttx/libs/libc/libc.a(lib_strtokr.o)
                0x0000000008009098                strtok_r
 .text.strchr   0x00000000080090e4       0x14 NuttX/nuttx/libs/libc/libc.a(lib_strchr.o)
                0x00000000080090e4                strchr
 .text.tcgetattr
                0x00000000080090f8        0xa NuttX/nuttx/libs/libc/libc.a(lib_tcgetattr.o)
                0x00000000080090f8                tcgetattr
 .text.tcsetattr
                0x0000000008009102       0x2a NuttX/nuttx/libs/libc/libc.a(lib_tcsetattr.o)
                0x0000000008009102                tcsetattr
 .text.task_get_info
                0x000000000800912c        0xa NuttX/nuttx/libs/libc/libc.a(task_getinfo.o)
                0x000000000800912c                task_get_info
 .text.isspace  0x0000000008009136       0x14 NuttX/nuttx/libs/libc/libc.a(lib_isspace.o)
                0x0000000008009136                isspace
 .text.tcflush  0x000000000800914a        0xa NuttX/nuttx/libs/libc/libc.a(lib_tcflush.o)
                0x000000000800914a                tcflush
 .text.tcdrain  0x0000000008009154        0xa NuttX/nuttx/drivers/libdrivers.a(tcdrain.o)
                0x0000000008009154                tcdrain
 .text.file_vioctl
                0x000000000800915e       0x9e NuttX/nuttx/fs/libfs.a(fs_ioctl.o)
                0x000000000800915e                file_vioctl
 .text.file_ioctl
                0x00000000080091fc       0x1a NuttX/nuttx/fs/libfs.a(fs_ioctl.o)
                0x00000000080091fc                file_ioctl
 .text.ioctl    0x0000000008009216       0x3c NuttX/nuttx/fs/libfs.a(fs_ioctl.o)
                0x0000000008009216                ioctl
 *fill*         0x0000000008009252        0x2 ffecc2925d7d05c5
 .text.inode_getpath
                0x0000000008009254       0x44 NuttX/nuttx/fs/libfs.a(fs_inodegetpath.o)
                0x0000000008009254                inode_getpath
 .text.file_vfcntl
                0x0000000008009298       0x7c NuttX/nuttx/fs/libfs.a(fs_fcntl.o)
 .text.file_fcntl
                0x0000000008009314       0x1a NuttX/nuttx/fs/libfs.a(fs_fcntl.o)
                0x0000000008009314                file_fcntl
 .text.file_dup
                0x000000000800932e       0x3c NuttX/nuttx/fs/libfs.a(fs_dup.o)
                0x000000000800932e                file_dup
 *fill*         0x000000000800936a        0x2 ffecc2925d7d05c5
 .text.nxsched_process_timer
                0x000000000800936c       0x1c NuttX/nuttx/sched/libsched.a(sched_processtimer.o)
                0x000000000800936c                nxsched_process_timer
 .text.strcat   0x0000000008009388       0x20 NuttX/nuttx/libs/libc/libc.a(lib_strcat.o)
                0x0000000008009388                strcat
 .text          0x00000000080093a8       0xa0 /opt/gcc/bin/../lib/gcc/arm-none-eabi/9.3.1/thumb/v7e-m+dp/hard/libgcc.a(_aeabi_ldivmod.o)
                0x00000000080093a8                __aeabi_ldivmod
 .text          0x0000000008009448       0x30 /opt/gcc/bin/../lib/gcc/arm-none-eabi/9.3.1/thumb/v7e-m+dp/hard/libgcc.a(_aeabi_uldivmod.o)
                0x0000000008009448                __aeabi_uldivmod
 .text          0x0000000008009478       0x40 /opt/gcc/bin/../lib/gcc/arm-none-eabi/9.3.1/thumb/v7e-m+dp/hard/libgcc.a(_fixunsdfdi.o)
                0x0000000008009478                __aeabi_d2ulz
                0x0000000008009478                __fixunsdfdi
 .text          0x00000000080094b8      0x2c4 /opt/gcc/bin/../lib/gcc/arm-none-eabi/9.3.1/thumb/v7e-m+dp/hard/libgcc.a(_udivmoddi4.o)
                0x00000000080094b8                __udivmoddi4
 .text          0x000000000800977c        0x4 /opt/gcc/bin/../lib/gcc/arm-none-eabi/9.3.1/thumb/v7e-m+dp/hard/libgcc.a(_dvmd_tls.o)
                0x000000000800977c                __aeabi_ldiv0
                0x000000000800977c                __aeabi_idiv0
 .text.board_get_devices
                0x0000000008009780        0x4 platforms/nuttx/src/bootloader/stm/stm32h7/arch_bootloader/libarch_bootloader.a(main.c.obj)
                0x0000000008009780                board_get_devices
 .text.board_deinit
                0x0000000008009784       0x30 platforms/nuttx/src/bootloader/stm/stm32h7/arch_bootloader/libarch_bootloader.a(main.c.obj)
                0x0000000008009784                board_deinit
 .text.arch_systic_init
                0x00000000080097b4       0x28 platforms/nuttx/src/bootloader/stm/stm32h7/arch_bootloader/libarch_bootloader.a(main.c.obj)
                0x00000000080097b4                arch_systic_init
 .text.arch_systic_deinit
                0x00000000080097dc       0x1a platforms/nuttx/src/bootloader/stm/stm32h7/arch_bootloader/libarch_bootloader.a(main.c.obj)
                0x00000000080097dc                arch_systic_deinit
 *fill*         0x00000000080097f6        0x2 ffecc2925d7d05c5
 .text.clock_deinit
                0x00000000080097f8       0x44 platforms/nuttx/src/bootloader/stm/stm32h7/arch_bootloader/libarch_bootloader.a(main.c.obj)
                0x00000000080097f8                clock_deinit
 .text.arch_flash_lock
                0x000000000800983c       0x16 platforms/nuttx/src/bootloader/stm/stm32h7/arch_bootloader/libarch_bootloader.a(main.c.obj)
                0x000000000800983c                arch_flash_lock
 .text.arch_flash_unlock
                0x0000000008009852       0x1a platforms/nuttx/src/bootloader/stm/stm32h7/arch_bootloader/libarch_bootloader.a(main.c.obj)
                0x0000000008009852                arch_flash_unlock
 .text.arch_flash_write
                0x000000000800986c        0x4 platforms/nuttx/src/bootloader/stm/stm32h7/arch_bootloader/libarch_bootloader.a(main.c.obj)
                0x000000000800986c                arch_flash_write
 .text.arch_setvtor
                0x0000000008009870        0xc platforms/nuttx/src/bootloader/stm/stm32h7/arch_bootloader/libarch_bootloader.a(main.c.obj)
                0x0000000008009870                arch_setvtor
 .text.flash_func_sector_size
                0x000000000800987c        0xc platforms/nuttx/src/bootloader/stm/stm32h7/arch_bootloader/libarch_bootloader.a(main.c.obj)
                0x000000000800987c                flash_func_sector_size
 .text.flash_func_erase_sector
                0x0000000008009888       0x1c platforms/nuttx/src/bootloader/stm/stm32h7/arch_bootloader/libarch_bootloader.a(main.c.obj)
                0x0000000008009888                flash_func_erase_sector
 .text.flash_func_write_word
                0x00000000080098a4        0xc platforms/nuttx/src/bootloader/stm/stm32h7/arch_bootloader/libarch_bootloader.a(main.c.obj)
                0x00000000080098a4                flash_func_write_word
 .text.flash_func_read_word
                0x00000000080098b0       0x14 platforms/nuttx/src/bootloader/stm/stm32h7/arch_bootloader/libarch_bootloader.a(main.c.obj)
                0x00000000080098b0                flash_func_read_word
 .text.flash_func_read_otp
                0x00000000080098c4        0x4 platforms/nuttx/src/bootloader/stm/stm32h7/arch_bootloader/libarch_bootloader.a(main.c.obj)
                0x00000000080098c4                flash_func_read_otp
 .text.get_mcu_id
                0x00000000080098c8        0xc platforms/nuttx/src/bootloader/stm/stm32h7/arch_bootloader/libarch_bootloader.a(main.c.obj)
                0x00000000080098c8                get_mcu_id
 .text.get_mcu_desc
                0x00000000080098d4       0x98 platforms/nuttx/src/bootloader/stm/stm32h7/arch_bootloader/libarch_bootloader.a(main.c.obj)
                0x00000000080098d4                get_mcu_desc
 .text.flash_func_read_sn
                0x000000000800996c        0xc platforms/nuttx/src/bootloader/stm/stm32h7/arch_bootloader/libarch_bootloader.a(main.c.obj)
                0x000000000800996c                flash_func_read_sn
 .text.led_on   0x0000000008009978       0x20 platforms/nuttx/src/bootloader/stm/stm32h7/arch_bootloader/libarch_bootloader.a(main.c.obj)
                0x0000000008009978                led_on
 .text.led_off  0x0000000008009998       0x20 platforms/nuttx/src/bootloader/stm/stm32h7/arch_bootloader/libarch_bootloader.a(main.c.obj)
                0x0000000008009998                led_off
 .text.led_toggle
                0x00000000080099b8       0x3c platforms/nuttx/src/bootloader/stm/stm32h7/arch_bootloader/libarch_bootloader.a(main.c.obj)
                0x00000000080099b8                led_toggle
 .text.arch_do_jump
                0x00000000080099f4        0xc platforms/nuttx/src/bootloader/stm/stm32h7/arch_bootloader/libarch_bootloader.a(main.c.obj)
                0x00000000080099f4                arch_do_jump
 .text.bootloader_main
                0x0000000008009a00      0x108 platforms/nuttx/src/bootloader/stm/stm32h7/arch_bootloader/libarch_bootloader.a(main.c.obj)
                0x0000000008009a00                bootloader_main
 .text.systick_set_reload
                0x0000000008009b08       0x18 platforms/nuttx/src/bootloader/stm/stm32h7/arch_bootloader/libarch_bootloader.a(systick.c.obj)
                0x0000000008009b08                systick_set_reload
 .text.systick_set_clocksource
                0x0000000008009b20       0x20 platforms/nuttx/src/bootloader/stm/stm32h7/arch_bootloader/libarch_bootloader.a(systick.c.obj)
                0x0000000008009b20                systick_set_clocksource
 .text.systick_counter_enable
                0x0000000008009b40       0x10 platforms/nuttx/src/bootloader/stm/stm32h7/arch_bootloader/libarch_bootloader.a(systick.c.obj)
                0x0000000008009b40                systick_counter_enable
 .text.systick_counter_disable
                0x0000000008009b50       0x1c platforms/nuttx/src/bootloader/stm/stm32h7/arch_bootloader/libarch_bootloader.a(systick.c.obj)
                0x0000000008009b50                systick_counter_disable
 .text.systick_interrupt_enable
                0x0000000008009b6c       0x10 platforms/nuttx/src/bootloader/stm/stm32h7/arch_bootloader/libarch_bootloader.a(systick.c.obj)
                0x0000000008009b6c                systick_interrupt_enable
 .text.systick_interrupt_disable
                0x0000000008009b7c       0x10 platforms/nuttx/src/bootloader/stm/stm32h7/arch_bootloader/libarch_bootloader.a(systick.c.obj)
                0x0000000008009b7c                systick_interrupt_disable
 .text.board_configure_reset
                0x0000000008009b8c       0x40 platforms/nuttx/src/px4/stm/stm32h7/board_reset/libarch_board_reset.a(board_reset.cpp.obj)
                0x0000000008009b8c                board_configure_reset
 .text.board_reset
                0x0000000008009bcc       0x18 platforms/nuttx/src/px4/stm/stm32h7/board_reset/libarch_board_reset.a(board_reset.cpp.obj)
                0x0000000008009bcc                board_reset
 .text.up_systemreset
                0x0000000008009be4       0x1c NuttX/nuttx/arch/arm/src/libarch.a(arm_systemreset.o)
                0x0000000008009be4                up_systemreset
 .text.stm32h7_unlock_flash
                0x0000000008009c00       0x24 NuttX/nuttx/arch/arm/src/libarch.a(stm32_flash.o)
 .text.stm32h7_flash_bank
                0x0000000008009c24       0x2c NuttX/nuttx/arch/arm/src/libarch.a(stm32_flash.o)
 .text.stm32h7_flash_modifyreg32
                0x0000000008009c50       0x14 NuttX/nuttx/arch/arm/src/libarch.a(stm32_flash.o)
 .text.stm32h7_lock_flash
                0x0000000008009c64        0xa NuttX/nuttx/arch/arm/src/libarch.a(stm32_flash.o)
 *fill*         0x0000000008009c6e        0x2 ffecc2925d7d05c5
 .text.stm32h7_wait_for_last_operation
                0x0000000008009c70       0x2c NuttX/nuttx/arch/arm/src/libarch.a(stm32_flash.o)
 .text.stm32h7_flash_unlock
                0x0000000008009c9c       0x26 NuttX/nuttx/arch/arm/src/libarch.a(stm32_flash.o)
                0x0000000008009c9c                stm32h7_flash_unlock
 .text.stm32h7_flash_lock
                0x0000000008009cc2       0x28 NuttX/nuttx/arch/arm/src/libarch.a(stm32_flash.o)
                0x0000000008009cc2                stm32h7_flash_lock
 .text.up_progmem_getaddress
                0x0000000008009cea       0x26 NuttX/nuttx/arch/arm/src/libarch.a(stm32_flash.o)
                0x0000000008009cea                up_progmem_getaddress
 .text.up_progmem_ispageerased
                0x0000000008009d10       0x2a NuttX/nuttx/arch/arm/src/libarch.a(stm32_flash.o)
                0x0000000008009d10                up_progmem_ispageerased
 .text.up_progmem_eraseblock
                0x0000000008009d3a       0xda NuttX/nuttx/arch/arm/src/libarch.a(stm32_flash.o)
                0x0000000008009d3a                up_progmem_eraseblock
 .text.up_progmem_write
                0x0000000008009e14      0x1a0 NuttX/nuttx/arch/arm/src/libarch.a(stm32_flash.o)
                0x0000000008009e14                up_progmem_write
 .text.fcl_reset
                0x0000000008009fb4        0x8 platforms/nuttx/src/bootloader/common/lib/libbootloader_lib.a(flash_cache.c.obj)
 .text.fc_reset
                0x0000000008009fbc       0x20 platforms/nuttx/src/bootloader/common/lib/libbootloader_lib.a(flash_cache.c.obj)
                0x0000000008009fbc                fc_reset
 .text.fc_flush
                0x0000000008009fdc       0x16 platforms/nuttx/src/bootloader/common/lib/libbootloader_lib.a(flash_cache.c.obj)
                0x0000000008009fdc                fc_flush
 *fill*         0x0000000008009ff2        0x2 ffecc2925d7d05c5
 .text.fc_write
                0x0000000008009ff4       0x80 platforms/nuttx/src/bootloader/common/lib/libbootloader_lib.a(flash_cache.c.obj)
                0x0000000008009ff4                fc_write
 .text.fc_read  0x000000000800a074       0x58 platforms/nuttx/src/bootloader/common/lib/libbootloader_lib.a(flash_cache.c.obj)
                0x000000000800a074                fc_read
 *(.fixup)
 *(.gnu.warning)
 *(.rodata .rodata.*)
 .rodata.g_idle_topstack
                0x000000000800a0cc        0x4 NuttX/nuttx/arch/arm/src/libarch.a(stm32_start.o)
                0x000000000800a0cc                g_idle_topstack
 .rodata.arm_hardfault.str1.1
                0x000000000800a0d0       0x18 NuttX/nuttx/arch/arm/src/libarch.a(arm_hardfault.o)
 .rodata.g_idlename
                0x000000000800a0e8        0xa NuttX/nuttx/sched/libsched.a(nx_start.o)
 *fill*         0x000000000800a0f2        0x2 ffecc2925d7d05c5
 .rodata.g_tasklisttable
                0x000000000800a0f4       0x40 NuttX/nuttx/sched/libsched.a(nx_start.o)
                0x000000000800a0f4                g_tasklisttable
 .rodata.nx_start_task.str1.1
                0x000000000800a134        0x5 NuttX/nuttx/sched/libsched.a(nx_bringup.o)
 .rodata.nx_bringup.str1.1
                0x000000000800a139        0xb NuttX/nuttx/sched/libsched.a(nx_bringup.o)
 .rodata.irq_unexpected_isr.str1.1
                0x000000000800a144       0x18 NuttX/nuttx/sched/libsched.a(irq_unexpectedisr.o)
 .rodata.g_noname
                0x000000000800a15c        0x9 NuttX/nuttx/sched/libsched.a(task_setup.o)
 *fill*         0x000000000800a165        0x3 ffecc2925d7d05c5
 .rodata.g_defactions
                0x000000000800a168       0x58 NuttX/nuttx/sched/libsched.a(sig_default.o)
 .rodata.sercon_main.str1.1
                0x000000000800a1c0       0xc8 NuttX/apps/libapps.a(cdcacm_main.c.src.NxtPX4.PX4-Autopilot.platforms.nuttx.NuttX.apps.system.cdcacm.o)
 .rodata.g_gpiobase
                0x000000000800a288       0x20 NuttX/nuttx/arch/arm/src/libarch.a(stm32_gpio.o)
                0x000000000800a288                g_gpiobase
 .rodata.arm_serialinit.str1.1
                0x000000000800a2a8        0xb NuttX/nuttx/arch/arm/src/libarch.a(stm32_serial.o)
 *fill*         0x000000000800a2b3        0x1 ffecc2925d7d05c5
 .rodata.g_uart_devs
                0x000000000800a2b4       0x20 NuttX/nuttx/arch/arm/src/libarch.a(stm32_serial.o)
 .rodata.g_uart_ops
                0x000000000800a2d4       0x34 NuttX/nuttx/arch/arm/src/libarch.a(stm32_serial.o)
 .rodata.g_devops
                0x000000000800a308       0x1c NuttX/nuttx/arch/arm/src/libarch.a(stm32_otgdev.o)
 .rodata.g_epops
                0x000000000800a324       0x1c NuttX/nuttx/arch/arm/src/libarch.a(stm32_otgdev.o)
 .rodata.umm_initialize.str1.1
                0x000000000800a340        0x5 NuttX/nuttx/mm/libmm.a(umm_initialize.o)
 *fill*         0x000000000800a345        0x3 ffecc2925d7d05c5
 .rodata.g_baud_table
                0x000000000800a348       0xf8 NuttX/nuttx/libs/libc/libc.a(lib_cfspeed.o)
 .rodata.lib_vsprintf.str1.1
                0x000000000800a440        0x8 NuttX/nuttx/libs/libc/libc.a(lib_libvsprintf.o)
 .rodata.g_nullstring
                0x000000000800a448        0x7 NuttX/nuttx/libs/libc/libc.a(lib_libvsprintf.o)
 *fill*         0x000000000800a44f        0x1 ffecc2925d7d05c5
 .rodata.g_dtoa_round
                0x000000000800a450       0x80 NuttX/nuttx/libs/libc/libc.a(lib_dtoa_data.o)
                0x000000000800a450                g_dtoa_round
 .rodata.g_dtoa_scale_down
                0x000000000800a4d0       0x48 NuttX/nuttx/libs/libc/libc.a(lib_dtoa_data.o)
                0x000000000800a4d0                g_dtoa_scale_down
 .rodata.g_dtoa_scale_up
                0x000000000800a518       0x48 NuttX/nuttx/libs/libc/libc.a(lib_dtoa_data.o)
                0x000000000800a518                g_dtoa_scale_up
 .rodata.bl_proto_rev
                0x000000000800a560        0x4 platforms/nuttx/src/bootloader/common/libbootloader.a(bl.c.obj)
 .rodata.usb_cinit.str1.1
                0x000000000800a564        0x2 platforms/nuttx/src/bootloader/common/lib/libbootloader_lib.a(cdcacm.c.obj)
                                          0x3 (size before relaxing)
 .rodata.uart_cinit.str1.1
                0x000000000800a566        0xb platforms/nuttx/src/bootloader/common/lib/libbootloader_lib.a(uart.c.obj)
                                          0xe (size before relaxing)
 *fill*         0x000000000800a571        0x3 ffecc2925d7d05c5
 .rodata.g_serialops
                0x000000000800a574       0x20 NuttX/nuttx/drivers/libdrivers.a(serial.o)
 .rodata.cdcacm_initialize.str1.1
                0x000000000800a594        0xe NuttX/nuttx/drivers/libdrivers.a(cdcacm.o)
 *fill*         0x000000000800a5a2        0x2 ffecc2925d7d05c5
 .rodata.g_driverops
                0x000000000800a5a4       0x18 NuttX/nuttx/drivers/libdrivers.a(cdcacm.o)
 .rodata.g_uartops
                0x000000000800a5bc       0x34 NuttX/nuttx/drivers/libdrivers.a(cdcacm.o)
 .rodata.cdcacm_mkstrdesc.str1.1
                0x000000000800a5f0       0x14 NuttX/nuttx/drivers/libdrivers.a(cdcacm_desc.o)
                                         0x16 (size before relaxing)
 .rodata.g_devdesc
                0x000000000800a604       0x12 NuttX/nuttx/drivers/libdrivers.a(cdcacm_desc.o)
 .rodata.devnull_register.str1.1
                0x000000000800a616        0xa NuttX/nuttx/drivers/libdrivers.a(dev_null.o)
 .rodata.devnull_fops
                0x000000000800a620       0x20 NuttX/nuttx/drivers/libdrivers.a(dev_null.o)
 .rodata.g_default_channel_ops
                0x000000000800a640       0x14 NuttX/nuttx/drivers/libdrivers.a(syslog_channel.o)
 .rodata.inode_root_reserve.str1.1
                0x000000000800a654        0x1 NuttX/nuttx/fs/libfs.a(fs_inodereserve.o)
 .rodata.inode_search.str1.1
                0x000000000800a654        0x6 NuttX/nuttx/fs/libfs.a(fs_inodesearch.o)
                                          0x7 (size before relaxing)
 .rodata.inode_getpath.str1.1
                0x000000000800a65a        0x2 NuttX/nuttx/fs/libfs.a(fs_inodegetpath.o)
 .rodata.bootloader_main.str1.1
                0x000000000800a65c       0x1f platforms/nuttx/src/bootloader/stm/stm32h7/arch_bootloader/libarch_bootloader.a(main.c.obj)
 .rodata.str1.1
                0x000000000800a67b       0x1b platforms/nuttx/src/bootloader/stm/stm32h7/arch_bootloader/libarch_bootloader.a(main.c.obj)
 *fill*         0x000000000800a696        0x2 ffecc2925d7d05c5
 .rodata._ZL5modes
                0x000000000800a698       0x14 platforms/nuttx/src/px4/stm/stm32h7/board_reset/libarch_board_reset.a(board_reset.cpp.obj)
 *(.gnu.linkonce.t.*)
 *(.glue_7)
 .glue_7        0x000000000800a6ac        0x0 linker stubs
 *(.glue_7t)
 .glue_7t       0x000000000800a6ac        0x0 linker stubs
 *(.got)
 *(.gcc_except_table)
 *(.gnu.linkonce.r.*)
                0x000000000800a6ac                _etext = ABSOLUTE (.)

.vfp11_veneer   0x000000000800a6ac        0x0
 .vfp11_veneer  0x000000000800a6ac        0x0 linker stubs

.v4_bx          0x000000000800a6ac        0x0
 .v4_bx         0x000000000800a6ac        0x0 linker stubs

.iplt           0x000000000800a6ac        0x0
 .iplt          0x000000000800a6ac        0x0 NuttX/nuttx/arch/arm/src/libarch.a(arm_vectors.o)

.init_section   0x000000000800a6ac        0x0
                0x000000000800a6ac                _sinit = ABSOLUTE (.)
 *(.init_array .init_array.*)
                0x000000000800a6ac                _einit = ABSOLUTE (.)

.ARM.extab
 *(.ARM.extab*)
                0x000000000800a6ac                __exidx_start = ABSOLUTE (.)

.ARM.exidx      0x000000000800a6ac        0x8
 *(.ARM.exidx*)
 .ARM.exidx     0x000000000800a6ac        0x8 /opt/gcc/bin/../lib/gcc/arm-none-eabi/9.3.1/thumb/v7e-m+dp/hard/libgcc.a(_udivmoddi4.o)
                0x000000000800a6b4                __exidx_end = ABSOLUTE (.)
                0x000000000800a6b4                _eronly = ABSOLUTE (.)

.rel.dyn        0x000000000800a6b4        0x0
 .rel.iplt      0x000000000800a6b4        0x0 NuttX/nuttx/arch/arm/src/libarch.a(arm_vectors.o)

.data           0x0000000024000000       0xe0 load address 0x000000000800a6b4
                0x0000000024000000                _sdata = ABSOLUTE (.)
 *(.data .data.*)
 .data.g_usart3priv
                0x0000000024000000       0x78 NuttX/nuttx/arch/arm/src/libarch.a(stm32_serial.o)
 .data.g_usb_df
                0x0000000024000078        0x4 platforms/nuttx/src/bootloader/common/lib/libbootloader_lib.a(cdcacm.c.obj)
                0x0000000024000078                g_usb_df
 .data.g_uart_df
                0x000000002400007c        0x4 platforms/nuttx/src/bootloader/common/lib/libbootloader_lib.a(uart.c.obj)
                0x000000002400007c                g_uart_df
 .data.g_default_channel
                0x0000000024000080        0x4 NuttX/nuttx/drivers/libdrivers.a(syslog_channel.o)
 .data.g_syslog_channel
                0x0000000024000084        0x4 NuttX/nuttx/drivers/libdrivers.a(syslog_channel.o)
                0x0000000024000084                g_syslog_channel
 .data.g_syslog_default_sem
                0x0000000024000088        0x2 NuttX/nuttx/drivers/libdrivers.a(syslog_channel.o)
 .data.board_info
                0x000000002400008a       0x10 platforms/nuttx/src/bootloader/stm/stm32h7/arch_bootloader/libarch_bootloader.a(main.c.obj)
                0x000000002400008a                board_info
 *fill*         0x000000002400009a        0x2 
 .data.mcu_descriptions
                0x000000002400009c       0x18 platforms/nuttx/src/bootloader/stm/stm32h7/arch_bootloader/libarch_bootloader.a(main.c.obj)
                0x000000002400009c                mcu_descriptions
 .data.g_divisor
                0x00000000240000b4        0x4 platforms/nuttx/src/bootloader/stm/stm32h7/arch_bootloader/libarch_bootloader.a(systick.c.obj)
                0x00000000240000b4                g_divisor
 .data.stm32h7_flash_bank1_priv
                0x00000000240000b8       0x14 NuttX/nuttx/arch/arm/src/libarch.a(stm32_flash.o)
 .data.stm32h7_flash_bank2_priv
                0x00000000240000cc       0x14 NuttX/nuttx/arch/arm/src/libarch.a(stm32_flash.o)
 *(.gnu.linkonce.d.*)
                0x00000000240000e0                _edata = ABSOLUTE (.)

.igot.plt       0x00000000240000e0        0x0 load address 0x000000000800a794
 .igot.plt      0x00000000240000e0        0x0 NuttX/nuttx/arch/arm/src/libarch.a(arm_vectors.o)

.bss            0x00000000240000e0     0x141c load address 0x000000000800a794
                0x00000000240000e0                _sbss = ABSOLUTE (.)
 *(.bss .bss.*)
 .bss           0x00000000240000e0      0x200 NuttX/nuttx/arch/arm/src/libarch.a(arm_exception.o)
                0x00000000240000e0                g_intstackalloc
                0x00000000240002e0                g_intstacktop
 .bss.g_bkp_writable_counter
                0x00000000240002e0        0x2 NuttX/nuttx/arch/arm/src/libarch.a(stm32_pwr.o)
 *fill*         0x00000000240002e2        0x2 
 .bss.g_current_regs
                0x00000000240002e4        0x4 NuttX/nuttx/arch/arm/src/libarch.a(stm32_irq.o)
                0x00000000240002e4                g_current_regs
 .bss.g_idleargv
                0x00000000240002e8        0x8 NuttX/nuttx/sched/libsched.a(nx_start.o)
 .bss.g_idletcb
                0x00000000240002f0      0x168 NuttX/nuttx/sched/libsched.a(nx_start.o)
 .bss.g_inactivetasks
                0x0000000024000458        0x8 NuttX/nuttx/sched/libsched.a(nx_start.o)
                0x0000000024000458                g_inactivetasks
 .bss.g_lastpid
                0x0000000024000460        0x2 NuttX/nuttx/sched/libsched.a(nx_start.o)
                0x0000000024000460                g_lastpid
 *fill*         0x0000000024000462        0x2 
 .bss.g_npidhash
                0x0000000024000464        0x4 NuttX/nuttx/sched/libsched.a(nx_start.o)
                0x0000000024000464                g_npidhash
 .bss.g_nx_initstate
                0x0000000024000468        0x1 NuttX/nuttx/sched/libsched.a(nx_start.o)
                0x0000000024000468                g_nx_initstate
 *fill*         0x0000000024000469        0x3 
 .bss.g_pendingtasks
                0x000000002400046c        0x8 NuttX/nuttx/sched/libsched.a(nx_start.o)
                0x000000002400046c                g_pendingtasks
 .bss.g_pidhash
                0x0000000024000474        0x4 NuttX/nuttx/sched/libsched.a(nx_start.o)
                0x0000000024000474                g_pidhash
 .bss.g_readytorun
                0x0000000024000478        0x8 NuttX/nuttx/sched/libsched.a(nx_start.o)
                0x0000000024000478                g_readytorun
 .bss.g_running_tasks
                0x0000000024000480        0x4 NuttX/nuttx/sched/libsched.a(nx_start.o)
                0x0000000024000480                g_running_tasks
 .bss.g_stoppedtasks
                0x0000000024000484        0x8 NuttX/nuttx/sched/libsched.a(nx_start.o)
                0x0000000024000484                g_stoppedtasks
 .bss.g_waitingforsemaphore
                0x000000002400048c        0x8 NuttX/nuttx/sched/libsched.a(nx_start.o)
                0x000000002400048c                g_waitingforsemaphore
 .bss.g_waitingforsignal
                0x0000000024000494        0x8 NuttX/nuttx/sched/libsched.a(nx_start.o)
                0x0000000024000494                g_waitingforsignal
 .bss.g_irqvector
                0x000000002400049c      0x530 NuttX/nuttx/sched/libsched.a(irq_initialize.o)
                0x000000002400049c                g_irqvector
 .bss.g_sigfreeaction
                0x00000000240009cc        0x8 NuttX/nuttx/sched/libsched.a(sig_initialize.o)
                0x00000000240009cc                g_sigfreeaction
 .bss.g_sigpendingaction
                0x00000000240009d4        0x8 NuttX/nuttx/sched/libsched.a(sig_initialize.o)
                0x00000000240009d4                g_sigpendingaction
 .bss.g_sigpendingirqaction
                0x00000000240009dc        0x8 NuttX/nuttx/sched/libsched.a(sig_initialize.o)
                0x00000000240009dc                g_sigpendingirqaction
 .bss.g_sigpendingirqsignal
                0x00000000240009e4        0x8 NuttX/nuttx/sched/libsched.a(sig_initialize.o)
                0x00000000240009e4                g_sigpendingirqsignal
 .bss.g_sigpendingsignal
                0x00000000240009ec        0x8 NuttX/nuttx/sched/libsched.a(sig_initialize.o)
                0x00000000240009ec                g_sigpendingsignal
 .bss.g_wdactivelist
                0x00000000240009f4        0x8 NuttX/nuttx/sched/libsched.a(wd_initialize.o)
                0x00000000240009f4                g_wdactivelist
 .bss.g_cdcacm  0x00000000240009fc        0x4 NuttX/apps/libapps.a(cdcacm_main.c.src.NxtPX4.PX4-Autopilot.platforms.nuttx.NuttX.apps.system.cdcacm.o)
 .bss.g_usart3rxbuffer
                0x0000000024000a00      0x258 NuttX/nuttx/arch/arm/src/libarch.a(stm32_serial.o)
 .bss.g_usart3txbuffer
                0x0000000024000c58      0x12c NuttX/nuttx/arch/arm/src/libarch.a(stm32_serial.o)
 .bss.g_otghsdev
                0x0000000024000d84      0x1e8 NuttX/nuttx/arch/arm/src/libarch.a(stm32_otgdev.o)
 .bss.g_mmheap  0x0000000024000f6c        0x4 NuttX/nuttx/mm/libmm.a(umm_globals.o)
                0x0000000024000f6c                g_mmheap
 .bss.inited.6151
                0x0000000024000f70        0x4 NuttX/nuttx/libs/libc/libc.a(task_startup.o)
 .bss._led_state
                0x0000000024000f74        0x1 platforms/nuttx/src/bootloader/common/libbootloader.a(bl.c.obj)
 .bss.bl_type   0x0000000024000f75        0x1 platforms/nuttx/src/bootloader/common/libbootloader.a(bl.c.obj)
 *fill*         0x0000000024000f76        0x2 
 .bss.cin_count
                0x0000000024000f78        0x4 platforms/nuttx/src/bootloader/common/libbootloader.a(bl.c.obj)
 .bss.crctab.6213
                0x0000000024000f7c      0x400 platforms/nuttx/src/bootloader/common/libbootloader.a(bl.c.obj)
 .bss.flash_buffer.6238
                0x000000002400137c      0x100 platforms/nuttx/src/bootloader/common/libbootloader.a(bl.c.obj)
 .bss.last_input
                0x000000002400147c        0x1 platforms/nuttx/src/bootloader/common/libbootloader.a(bl.c.obj)
 *fill*         0x000000002400147d        0x3 
 .bss.timer     0x0000000024001480       0x10 platforms/nuttx/src/bootloader/common/libbootloader.a(bl.c.obj)
                0x0000000024001480                timer
 .bss.g_device  0x0000000024001490        0x4 platforms/nuttx/src/bootloader/common/lib/libbootloader_lib.a(cdcacm.c.obj)
                0x0000000024001490                g_device
 .bss.g_init    0x0000000024001494        0x4 platforms/nuttx/src/bootloader/common/lib/libbootloader_lib.a(cdcacm.c.obj)
                0x0000000024001494                g_init
 .bss.g_inode_sem
                0x0000000024001498        0x6 NuttX/nuttx/fs/libfs.a(fs_inode.o)
 *fill*         0x000000002400149e        0x2 
 .bss.g_root_inode
                0x00000000240014a0        0x4 NuttX/nuttx/fs/libfs.a(fs_inodesearch.o)
                0x00000000240014a0                g_root_inode
 .bss.g_system_timer
                0x00000000240014a4        0x4 NuttX/nuttx/sched/libsched.a(clock_initialize.o)
                0x00000000240014a4                g_system_timer
 .bss.g_saveptr
                0x00000000240014a8        0x4 NuttX/nuttx/libs/libc/libc.a(lib_strtok.o)
 .bss.flash_cache
                0x00000000240014ac       0x50 platforms/nuttx/src/bootloader/common/lib/libbootloader_lib.a(flash_cache.c.obj)
                0x00000000240014ac                flash_cache
 *(.gnu.linkonce.b.*)
 *(COMMON)
                0x00000000240014fc                . = ALIGN (0x4)
                0x00000000240014fc                _ebss = ABSOLUTE (.)

.stab
 *(.stab)

.stabstr
 *(.stabstr)

.stab.excl
 *(.stab.excl)

.stab.exclstr
 *(.stab.exclstr)

.stab.index
 *(.stab.index)

.stab.indexstr
 *(.stab.indexstr)

.comment        0x0000000000000000       0x4c
 *(.comment)
 .comment       0x0000000000000000       0x4c NuttX/nuttx/arch/arm/src/libarch.a(arm_vectors.o)
                                         0x4d (size before relaxing)
 .comment       0x000000000000004c       0x4d NuttX/nuttx/arch/arm/src/libarch.a(stm32_start.o)
 .comment       0x000000000000004c       0x4d NuttX/nuttx/arch/arm/src/libarch.a(stm32_rcc.o)
 .comment       0x000000000000004c       0x4d NuttX/nuttx/arch/arm/src/libarch.a(stm32_lowputc.o)
 .comment       0x000000000000004c       0x4d NuttX/nuttx/arch/arm/src/libarch.a(stm32_pwr.o)
 .comment       0x000000000000004c       0x4d NuttX/nuttx/arch/arm/src/libarch.a(arm_doirq.o)
 .comment       0x000000000000004c       0x4d NuttX/nuttx/arch/arm/src/libarch.a(arm_modifyreg32.o)
 .comment       0x000000000000004c       0x4d NuttX/nuttx/arch/arm/src/libarch.a(arm_udelay.o)
 .comment       0x000000000000004c       0x4d NuttX/nuttx/arch/arm/src/libarch.a(arm_cache.o)
 .comment       0x000000000000004c       0x4d NuttX/nuttx/arch/arm/src/libarch.a(stm32_irq.o)
 .comment       0x000000000000004c       0x4d NuttX/nuttx/arch/arm/src/libarch.a(arm_hardfault.o)
 .comment       0x000000000000004c       0x4d NuttX/nuttx/arch/arm/src/libarch.a(arm_svcall.o)
 .comment       0x000000000000004c       0x4d NuttX/nuttx/libs/libc/libc.a(lib_assert.o)
 .comment       0x000000000000004c       0x4d NuttX/nuttx/libs/libc/libc.a(lib_abort.o)
 .comment       0x000000000000004c       0x4d boards/hkust/nxt/src/libdrivers_board.a(bootloader_main.c.obj)
 .comment       0x000000000000004c       0x4d boards/hkust/nxt/src/libdrivers_board.a(usb.c.obj)
 .comment       0x000000000000004c       0x4d NuttX/nuttx/sched/libsched.a(nx_start.o)
 .comment       0x000000000000004c       0x4d NuttX/nuttx/sched/libsched.a(nx_bringup.o)
 .comment       0x000000000000004c       0x4d NuttX/nuttx/sched/libsched.a(irq_attach.o)
 .comment       0x000000000000004c       0x4d NuttX/nuttx/sched/libsched.a(irq_dispatch.o)
 .comment       0x000000000000004c       0x4d NuttX/nuttx/sched/libsched.a(irq_unexpectedisr.o)
 .comment       0x000000000000004c       0x4d NuttX/nuttx/sched/libsched.a(sched_lock.o)
 .comment       0x000000000000004c       0x4d NuttX/nuttx/sched/libsched.a(sched_unlock.o)
 .comment       0x000000000000004c       0x4d NuttX/nuttx/sched/libsched.a(task_create.o)
 .comment       0x000000000000004c       0x4d NuttX/nuttx/sched/libsched.a(task_init.o)
 .comment       0x000000000000004c       0x4d NuttX/nuttx/sched/libsched.a(task_setup.o)
 .comment       0x000000000000004c       0x4d NuttX/nuttx/sched/libsched.a(task_activate.o)
 .comment       0x000000000000004c       0x4d NuttX/nuttx/sched/libsched.a(task_start.o)
 .comment       0x000000000000004c       0x4d NuttX/nuttx/sched/libsched.a(exit.o)
 .comment       0x000000000000004c       0x4d NuttX/nuttx/sched/libsched.a(group_create.o)
 .comment       0x000000000000004c       0x4d NuttX/nuttx/sched/libsched.a(group_leave.o)
 .comment       0x000000000000004c       0x4d NuttX/nuttx/sched/libsched.a(group_setupidlefiles.o)
 .comment       0x000000000000004c       0x4d NuttX/nuttx/sched/libsched.a(group_setuptaskfiles.o)
 .comment       0x000000000000004c       0x4d NuttX/nuttx/sched/libsched.a(irq_initialize.o)
 .comment       0x000000000000004c       0x4d NuttX/nuttx/sched/libsched.a(sched_releasetcb.o)
 .comment       0x000000000000004c       0x4d NuttX/nuttx/sched/libsched.a(sem_destroy.o)
 .comment       0x000000000000004c       0x4d NuttX/nuttx/sched/libsched.a(sig_procmask.o)
 .comment       0x000000000000004c       0x4d NuttX/nuttx/sched/libsched.a(sig_unmaskpendingsignal.o)
 .comment       0x000000000000004c       0x4d NuttX/nuttx/sched/libsched.a(sig_removependingsignal.o)
 .comment       0x000000000000004c       0x4d NuttX/nuttx/sched/libsched.a(sig_releasependingsignal.o)
 .comment       0x000000000000004c       0x4d NuttX/nuttx/sched/libsched.a(sig_lowest.o)
 .comment       0x000000000000004c       0x4d NuttX/nuttx/sched/libsched.a(sig_cleanup.o)
 .comment       0x000000000000004c       0x4d NuttX/nuttx/sched/libsched.a(sig_dispatch.o)
 .comment       0x000000000000004c       0x4d NuttX/nuttx/sched/libsched.a(sig_deliver.o)
 .comment       0x000000000000004c       0x4d NuttX/nuttx/sched/libsched.a(sig_default.o)
 .comment       0x000000000000004c       0x4d NuttX/nuttx/sched/libsched.a(task_exithook.o)
 .comment       0x000000000000004c       0x4d NuttX/nuttx/sched/libsched.a(task_recover.o)
 .comment       0x000000000000004c       0x4d NuttX/nuttx/sched/libsched.a(task_cancelpt.o)
 .comment       0x000000000000004c       0x4d NuttX/nuttx/sched/libsched.a(wd_recover.o)
 .comment       0x000000000000004c       0x4d NuttX/nuttx/sched/libsched.a(group_setupstreams.o)
 .comment       0x000000000000004c       0x4d NuttX/nuttx/sched/libsched.a(sched_gettcb.o)
 .comment       0x000000000000004c       0x4d NuttX/nuttx/sched/libsched.a(sched_suspend.o)
 .comment       0x000000000000004c       0x4d NuttX/nuttx/sched/libsched.a(sched_continue.o)
 .comment       0x000000000000004c       0x4d NuttX/nuttx/sched/libsched.a(sem_recover.o)
 .comment       0x000000000000004c       0x4d NuttX/nuttx/sched/libsched.a(sem_waitirq.o)
 .comment       0x000000000000004c       0x4d NuttX/nuttx/sched/libsched.a(sig_initialize.o)
 .comment       0x000000000000004c       0x4d NuttX/nuttx/sched/libsched.a(sig_action.o)
 .comment       0x000000000000004c       0x4d NuttX/nuttx/sched/libsched.a(sig_pending.o)
 .comment       0x000000000000004c       0x4d NuttX/nuttx/sched/libsched.a(sig_findaction.o)
 .comment       0x000000000000004c       0x4d NuttX/nuttx/sched/libsched.a(sig_allocpendingsigaction.o)
 .comment       0x000000000000004c       0x4d NuttX/nuttx/sched/libsched.a(sig_releasependingsigaction.o)
 .comment       0x000000000000004c       0x4d NuttX/nuttx/sched/libsched.a(wd_cancel.o)
 .comment       0x000000000000004c       0x4d NuttX/nuttx/sched/libsched.a(sched_addblocked.o)
 .comment       0x000000000000004c       0x4d NuttX/nuttx/sched/libsched.a(sched_removeblocked.o)
 .comment       0x000000000000004c       0x4d NuttX/nuttx/sched/libsched.a(wd_initialize.o)
 .comment       0x000000000000004c       0x4d NuttX/nuttx/sched/libsched.a(sched_addprioritized.o)
 .comment       0x000000000000004c       0x4d NuttX/apps/libapps.a(cdcacm_main.c.src.NxtPX4.PX4-Autopilot.platforms.nuttx.NuttX.apps.system.cdcacm.o)
 .comment       0x000000000000004c       0x4d NuttX/nuttx/arch/arm/src/libarch.a(stm32_allocateheap.o)
 .comment       0x000000000000004c       0x4d NuttX/nuttx/arch/arm/src/libarch.a(stm32_gpio.o)
 .comment       0x000000000000004c       0x4d NuttX/nuttx/arch/arm/src/libarch.a(arm_assert.o)
 .comment       0x000000000000004c       0x4d NuttX/nuttx/arch/arm/src/libarch.a(arm_blocktask.o)
 .comment       0x000000000000004c       0x4d NuttX/nuttx/arch/arm/src/libarch.a(arm_copyfullstate.o)
 .comment       0x000000000000004c       0x4d NuttX/nuttx/arch/arm/src/libarch.a(arm_createstack.o)
 .comment       0x000000000000004c       0x4d NuttX/nuttx/arch/arm/src/libarch.a(arm_exit.o)
 .comment       0x000000000000004c       0x4d NuttX/nuttx/arch/arm/src/libarch.a(arm_initialize.o)
 .comment       0x000000000000004c       0x4d NuttX/nuttx/arch/arm/src/libarch.a(arm_initialstate.o)
 .comment       0x000000000000004c       0x4d NuttX/nuttx/arch/arm/src/libarch.a(arm_interruptcontext.o)
 .comment       0x000000000000004c       0x4d NuttX/nuttx/arch/arm/src/libarch.a(arm_releasepending.o)
 .comment       0x000000000000004c       0x4d NuttX/nuttx/arch/arm/src/libarch.a(arm_releasestack.o)
 .comment       0x000000000000004c       0x4d NuttX/nuttx/arch/arm/src/libarch.a(arm_schedulesigaction.o)
 .comment       0x000000000000004c       0x4d NuttX/nuttx/arch/arm/src/libarch.a(arm_sigdeliver.o)
 .comment       0x000000000000004c       0x4d NuttX/nuttx/arch/arm/src/libarch.a(arm_stackframe.o)
 .comment       0x000000000000004c       0x4d NuttX/nuttx/arch/arm/src/libarch.a(arm_unblocktask.o)
 .comment       0x000000000000004c       0x4d NuttX/nuttx/arch/arm/src/libarch.a(arm_usestack.o)
 .comment       0x000000000000004c       0x4d NuttX/nuttx/arch/arm/src/libarch.a(arm_idle.o)
 .comment       0x000000000000004c       0x4d NuttX/nuttx/arch/arm/src/libarch.a(arm_checkstack.o)
 .comment       0x000000000000004c       0x4d NuttX/nuttx/arch/arm/src/libarch.a(stm32_serial.o)
 .comment       0x000000000000004c       0x4d NuttX/nuttx/arch/arm/src/libarch.a(stm32_otgdev.o)
 .comment       0x000000000000004c       0x4d NuttX/nuttx/arch/arm/src/libarch.a(arm_mdelay.o)
 .comment       0x000000000000004c       0x4d NuttX/nuttx/mm/libmm.a(umm_initialize.o)
 .comment       0x000000000000004c       0x4d NuttX/nuttx/mm/libmm.a(umm_free.o)
 .comment       0x000000000000004c       0x4d NuttX/nuttx/mm/libmm.a(umm_malloc.o)
 .comment       0x000000000000004c       0x4d NuttX/nuttx/mm/libmm.a(umm_memalign.o)
 .comment       0x000000000000004c       0x4d NuttX/nuttx/mm/libmm.a(umm_zalloc.o)
 .comment       0x000000000000004c       0x4d NuttX/nuttx/mm/libmm.a(mm_initialize.o)
 .comment       0x000000000000004c       0x4d NuttX/nuttx/mm/libmm.a(mm_sem.o)
 .comment       0x000000000000004c       0x4d NuttX/nuttx/mm/libmm.a(mm_addfreechunk.o)
 .comment       0x000000000000004c       0x4d NuttX/nuttx/mm/libmm.a(mm_size2ndx.o)
 .comment       0x000000000000004c       0x4d NuttX/nuttx/mm/libmm.a(mm_free.o)
 .comment       0x000000000000004c       0x4d NuttX/nuttx/mm/libmm.a(mm_malloc.o)
 .comment       0x000000000000004c       0x4d NuttX/nuttx/mm/libmm.a(mm_memalign.o)
 .comment       0x000000000000004c       0x4d NuttX/nuttx/mm/libmm.a(mm_zalloc.o)
 .comment       0x000000000000004c       0x4d NuttX/nuttx/mm/libmm.a(umm_globals.o)
 .comment       0x000000000000004c       0x4d NuttX/nuttx/mm/libmm.a(mm_shrinkchunk.o)
 .comment       0x000000000000004c       0x4d NuttX/nuttx/libs/libc/libc.a(lib_errno.o)
 .comment       0x000000000000004c       0x4d NuttX/nuttx/libs/libc/libc.a(lib_stream.o)
 .comment       0x000000000000004c       0x4d NuttX/nuttx/libs/libc/libc.a(lib_filesem.o)
 .comment       0x000000000000004c       0x4d NuttX/nuttx/libs/libc/libc.a(sq_addlast.o)
 .comment       0x000000000000004c       0x4d NuttX/nuttx/libs/libc/libc.a(sq_rem.o)
 .comment       0x000000000000004c       0x4d NuttX/nuttx/libs/libc/libc.a(sq_remfirst.o)
 .comment       0x000000000000004c       0x4d NuttX/nuttx/libs/libc/libc.a(sq_remafter.o)
 .comment       0x000000000000004c       0x4d NuttX/nuttx/libs/libc/libc.a(dq_addlast.o)
 .comment       0x000000000000004c       0x4d NuttX/nuttx/libs/libc/libc.a(dq_addfirst.o)
 .comment       0x000000000000004c       0x4d NuttX/nuttx/libs/libc/libc.a(dq_rem.o)
 .comment       0x000000000000004c       0x4d NuttX/nuttx/libs/libc/libc.a(task_startup.o)
 .comment       0x000000000000004c       0x4d NuttX/nuttx/libs/libc/libc.a(sem_init.o)
 .comment       0x000000000000004c       0x4d NuttX/nuttx/libs/libc/libc.a(sig_addset.o)
 .comment       0x000000000000004c       0x4d NuttX/nuttx/libs/libc/libc.a(sig_delset.o)
 .comment       0x000000000000004c       0x4d NuttX/nuttx/libs/libc/libc.a(sig_emptyset.o)
 .comment       0x000000000000004c       0x4d NuttX/nuttx/libs/libc/libc.a(sig_ismember.o)
 .comment       0x000000000000004c       0x4d NuttX/nuttx/libs/libc/libc.a(lib_printf.o)
 .comment       0x000000000000004c       0x4d NuttX/nuttx/libs/libc/libc.a(lib_libflushall.o)
 .comment       0x000000000000004c       0x4d NuttX/nuttx/libs/libc/libc.a(lib_libfflush.o)
 .comment       0x000000000000004c       0x4d NuttX/nuttx/libs/libc/libc.a(lib_vfprintf.o)
 .comment       0x000000000000004c       0x4d NuttX/nuttx/libs/libc/libc.a(lib_stdoutstream.o)
 .comment       0x000000000000004c       0x4d NuttX/nuttx/libs/libc/libc.a(lib_memset.o)
 .comment       0x000000000000004c       0x4d NuttX/nuttx/libs/libc/libc.a(lib_strcpy.o)
 .comment       0x000000000000004c       0x4d NuttX/nuttx/libs/libc/libc.a(lib_strlen.o)
 .comment       0x000000000000004c       0x4d NuttX/nuttx/libs/libc/libc.a(lib_strncpy.o)
 .comment       0x000000000000004c       0x4d NuttX/nuttx/libs/libc/libc.a(lib_cfspeed.o)
 .comment       0x000000000000004c       0x4d NuttX/nuttx/libs/libc/libc.a(tls_getinfo.o)
 .comment       0x000000000000004c       0x4d NuttX/nuttx/libs/libc/libc.a(lib_streamsem.o)
 .comment       0x000000000000004c       0x4d NuttX/nuttx/libs/libc/libc.a(lib_libnoflush.o)
 .comment       0x000000000000004c       0x4d NuttX/nuttx/libs/libc/libc.a(lib_libvsprintf.o)
 .comment       0x000000000000004c       0x4d NuttX/nuttx/libs/libc/libc.a(lib_ultoa_invert.o)
 .comment       0x000000000000004c       0x4d NuttX/nuttx/libs/libc/libc.a(lib_dtoa_engine.o)
 .comment       0x000000000000004c       0x4d NuttX/nuttx/libs/libc/libc.a(lib_dtoa_data.o)
 .comment       0x000000000000004c       0x4d NuttX/nuttx/libs/libc/libc.a(lib_fputc.o)
 .comment       0x000000000000004c       0x4d NuttX/nuttx/libs/libc/libc.a(lib_strnlen.o)
 .comment       0x000000000000004c       0x4d NuttX/nuttx/libs/libc/libc.a(lib_libfwrite.o)
 .comment       0x000000000000004c       0x4d NuttX/nuttx/libs/libc/libc.a(lib_rdflush.o)
 .comment       0x000000000000004c       0x4d NuttX/nuttx/libs/libc/libc.a(lib_fseek.o)
 .comment       0x000000000000004c       0x4d NuttX/nuttx/libs/libc/libc.a(lib_wrflush.o)
 .comment       0x000000000000004c       0x4d platforms/nuttx/src/bootloader/common/libbootloader.a(bl.c.obj)
 .comment       0x000000000000004c       0x4d platforms/nuttx/src/bootloader/common/lib/libbootloader_lib.a(cdcacm.c.obj)
 .comment       0x000000000000004c       0x4d platforms/nuttx/src/bootloader/common/lib/libbootloader_lib.a(uart.c.obj)
 .comment       0x000000000000004c       0x4d NuttX/nuttx/boards/libboards.a(boardctl.o)
 .comment       0x000000000000004c       0x4d NuttX/nuttx/drivers/libdrivers.a(serial.o)
 .comment       0x000000000000004c       0x4d NuttX/nuttx/drivers/libdrivers.a(serial_io.o)
 .comment       0x000000000000004c       0x4d NuttX/nuttx/drivers/libdrivers.a(syslog_flush.o)
 .comment       0x000000000000004c       0x4d NuttX/nuttx/drivers/libdrivers.a(syslog_initialize.o)
 .comment       0x000000000000004c       0x4d NuttX/nuttx/drivers/libdrivers.a(cdcacm.o)
 .comment       0x000000000000004c       0x4d NuttX/nuttx/drivers/libdrivers.a(cdcacm_desc.o)
 .comment       0x000000000000004c       0x4d NuttX/nuttx/drivers/libdrivers.a(dev_null.o)
 .comment       0x000000000000004c       0x4d NuttX/nuttx/drivers/libdrivers.a(syslog_channel.o)
 .comment       0x000000000000004c       0x4d NuttX/nuttx/fs/libfs.a(fs_initialize.o)
 .comment       0x000000000000004c       0x4d NuttX/nuttx/fs/libfs.a(fs_files.o)
 .comment       0x000000000000004c       0x4d NuttX/nuttx/fs/libfs.a(fs_inode.o)
 .comment       0x000000000000004c       0x4d NuttX/nuttx/fs/libfs.a(fs_inodereserve.o)
 .comment       0x000000000000004c       0x4d NuttX/nuttx/fs/libfs.a(fs_inodesearch.o)
 .comment       0x000000000000004c       0x4d NuttX/nuttx/fs/libfs.a(fs_close.o)
 .comment       0x000000000000004c       0x4d NuttX/nuttx/fs/libfs.a(fs_dup2.o)
 .comment       0x000000000000004c       0x4d NuttX/nuttx/fs/libfs.a(fs_lseek.o)
 .comment       0x000000000000004c       0x4d NuttX/nuttx/fs/libfs.a(fs_open.o)
 .comment       0x000000000000004c       0x4d NuttX/nuttx/fs/libfs.a(fs_read.o)
 .comment       0x000000000000004c       0x4d NuttX/nuttx/fs/libfs.a(fs_write.o)
 .comment       0x000000000000004c       0x4d NuttX/nuttx/fs/libfs.a(fs_fdopen.o)
 .comment       0x000000000000004c       0x4d NuttX/nuttx/fs/libfs.a(fs_registerdriver.o)
 .comment       0x000000000000004c       0x4d NuttX/nuttx/fs/libfs.a(fs_unregisterdriver.o)
 .comment       0x000000000000004c       0x4d NuttX/nuttx/fs/libfs.a(fs_inodeaddref.o)
 .comment       0x000000000000004c       0x4d NuttX/nuttx/fs/libfs.a(fs_inodefind.o)
 .comment       0x000000000000004c       0x4d NuttX/nuttx/fs/libfs.a(fs_inoderelease.o)
 .comment       0x000000000000004c       0x4d NuttX/nuttx/fs/libfs.a(fs_inoderemove.o)
 .comment       0x000000000000004c       0x4d NuttX/nuttx/fs/libfs.a(fs_inodefree.o)
 .comment       0x000000000000004c       0x4d NuttX/nuttx/sched/libsched.a(clock_initialize.o)
 .comment       0x000000000000004c       0x4d NuttX/nuttx/sched/libsched.a(sched_getfiles.o)
 .comment       0x000000000000004c       0x4d NuttX/nuttx/sched/libsched.a(sched_addreadytorun.o)
 .comment       0x000000000000004c       0x4d NuttX/nuttx/sched/libsched.a(sched_removereadytorun.o)
 .comment       0x000000000000004c       0x4d NuttX/nuttx/sched/libsched.a(sched_mergepending.o)
 .comment       0x000000000000004c       0x4d NuttX/nuttx/sched/libsched.a(sched_getstreams.o)
 .comment       0x000000000000004c       0x4d NuttX/nuttx/sched/libsched.a(sched_idletask.o)
 .comment       0x000000000000004c       0x4d NuttX/nuttx/sched/libsched.a(sched_self.o)
 .comment       0x000000000000004c       0x4d NuttX/nuttx/sched/libsched.a(sched_get_stackinfo.o)
 .comment       0x000000000000004c       0x4d NuttX/nuttx/sched/libsched.a(sem_wait.o)
 .comment       0x000000000000004c       0x4d NuttX/nuttx/sched/libsched.a(sem_trywait.o)
 .comment       0x000000000000004c       0x4d NuttX/nuttx/sched/libsched.a(sem_post.o)
 .comment       0x000000000000004c       0x4d NuttX/nuttx/sched/libsched.a(sem_reset.o)
 .comment       0x000000000000004c       0x4d NuttX/nuttx/sched/libsched.a(sig_kill.o)
 .comment       0x000000000000004c       0x4d NuttX/nuttx/sched/libsched.a(sig_usleep.o)
 .comment       0x000000000000004c       0x4d NuttX/nuttx/sched/libsched.a(task_exit.o)
 .comment       0x000000000000004c       0x4d NuttX/nuttx/sched/libsched.a(task_getpid.o)
 .comment       0x000000000000004c       0x4d NuttX/nuttx/sched/libsched.a(task_terminate.o)
 .comment       0x000000000000004c       0x4d NuttX/nuttx/sched/libsched.a(wd_start.o)
 .comment       0x000000000000004c       0x4d NuttX/nuttx/sched/libsched.a(sig_nanosleep.o)
 .comment       0x000000000000004c       0x4d NuttX/nuttx/sched/libsched.a(sig_timedwait.o)
 .comment       0x000000000000004c       0x4d NuttX/nuttx/arch/arm/src/libarch.a(stm32_timerisr.o)
 .comment       0x000000000000004c       0x4d NuttX/nuttx/mm/libmm.a(umm_realloc.o)
 .comment       0x000000000000004c       0x4d NuttX/nuttx/mm/libmm.a(mm_realloc.o)
 .comment       0x000000000000004c       0x4d NuttX/nuttx/libs/libc/libc.a(lib_umask.o)
 .comment       0x000000000000004c       0x4d NuttX/nuttx/libs/libc/libc.a(sq_addfirst.o)
 .comment       0x000000000000004c       0x4d NuttX/nuttx/libs/libc/libc.a(sq_addafter.o)
 .comment       0x000000000000004c       0x4d NuttX/nuttx/libs/libc/libc.a(clock_ticks2time.o)
 .comment       0x000000000000004c       0x4d NuttX/nuttx/libs/libc/libc.a(clock_time2ticks.o)
 .comment       0x000000000000004c       0x4d NuttX/nuttx/libs/libc/libc.a(sem_getvalue.o)
 .comment       0x000000000000004c       0x4d NuttX/nuttx/libs/libc/libc.a(sem_setprotocol.o)
 .comment       0x000000000000004c       0x4d NuttX/nuttx/libs/libc/libc.a(lib_asprintf.o)
 .comment       0x000000000000004c       0x4d NuttX/nuttx/libs/libc/libc.a(lib_snprintf.o)
 .comment       0x000000000000004c       0x4d NuttX/nuttx/libs/libc/libc.a(lib_vasprintf.o)
 .comment       0x000000000000004c       0x4d NuttX/nuttx/libs/libc/libc.a(lib_memoutstream.o)
 .comment       0x000000000000004c       0x4d NuttX/nuttx/libs/libc/libc.a(lib_nulloutstream.o)
 .comment       0x000000000000004c       0x4d NuttX/nuttx/libs/libc/libc.a(lib_atol.o)
 .comment       0x000000000000004c       0x4d NuttX/nuttx/libs/libc/libc.a(lib_strtol.o)
 .comment       0x000000000000004c       0x4d NuttX/nuttx/libs/libc/libc.a(lib_strtoul.o)
 .comment       0x000000000000004c       0x4d NuttX/nuttx/libs/libc/libc.a(lib_checkbase.o)
 .comment       0x000000000000004c       0x4d NuttX/nuttx/libs/libc/libc.a(lib_isbasedigit.o)
 .comment       0x000000000000004c       0x4d NuttX/nuttx/libs/libc/libc.a(lib_skipspace.o)
 .comment       0x000000000000004c       0x4d NuttX/nuttx/libs/libc/libc.a(lib_strdup.o)
 .comment       0x000000000000004c       0x4d NuttX/nuttx/libs/libc/libc.a(lib_strtok.o)
 .comment       0x000000000000004c       0x4d NuttX/nuttx/libs/libc/libc.a(lib_strtokr.o)
 .comment       0x000000000000004c       0x4d NuttX/nuttx/libs/libc/libc.a(lib_strchr.o)
 .comment       0x000000000000004c       0x4d NuttX/nuttx/libs/libc/libc.a(lib_tcgetattr.o)
 .comment       0x000000000000004c       0x4d NuttX/nuttx/libs/libc/libc.a(lib_tcsetattr.o)
 .comment       0x000000000000004c       0x4d NuttX/nuttx/libs/libc/libc.a(task_getinfo.o)
 .comment       0x000000000000004c       0x4d NuttX/nuttx/libs/libc/libc.a(lib_isspace.o)
 .comment       0x000000000000004c       0x4d NuttX/nuttx/libs/libc/libc.a(lib_tcflush.o)
 .comment       0x000000000000004c       0x4d NuttX/nuttx/drivers/libdrivers.a(tcdrain.o)
 .comment       0x000000000000004c       0x4d NuttX/nuttx/fs/libfs.a(fs_ioctl.o)
 .comment       0x000000000000004c       0x4d NuttX/nuttx/fs/libfs.a(fs_inodegetpath.o)
 .comment       0x000000000000004c       0x4d NuttX/nuttx/fs/libfs.a(fs_fcntl.o)
 .comment       0x000000000000004c       0x4d NuttX/nuttx/fs/libfs.a(fs_dup.o)
 .comment       0x000000000000004c       0x4d NuttX/nuttx/sched/libsched.a(sched_processtimer.o)
 .comment       0x000000000000004c       0x4d NuttX/nuttx/libs/libc/libc.a(lib_strcat.o)
 .comment       0x000000000000004c       0x4d platforms/nuttx/src/bootloader/stm/stm32h7/arch_bootloader/libarch_bootloader.a(main.c.obj)
 .comment       0x000000000000004c       0x4d platforms/nuttx/src/bootloader/stm/stm32h7/arch_bootloader/libarch_bootloader.a(systick.c.obj)
 .comment       0x000000000000004c       0x4d platforms/nuttx/src/px4/stm/stm32h7/board_reset/libarch_board_reset.a(board_reset.cpp.obj)
 .comment       0x000000000000004c       0x4d NuttX/nuttx/arch/arm/src/libarch.a(arm_systemreset.o)
 .comment       0x000000000000004c       0x4d NuttX/nuttx/arch/arm/src/libarch.a(stm32_flash.o)
 .comment       0x000000000000004c       0x4d platforms/nuttx/src/bootloader/common/lib/libbootloader_lib.a(flash_cache.c.obj)

.ARM.attributes
                0x0000000000000000       0x35
 .ARM.attributes
                0x0000000000000000       0x37 NuttX/nuttx/arch/arm/src/libarch.a(arm_vectors.o)
 .ARM.attributes
                0x0000000000000037       0x1e NuttX/nuttx/arch/arm/src/libarch.a(arm_exception.o)
 .ARM.attributes
                0x0000000000000055       0x32 NuttX/nuttx/arch/arm/src/libarch.a(stm32_start.o)
 .ARM.attributes
                0x0000000000000087       0x32 NuttX/nuttx/arch/arm/src/libarch.a(stm32_rcc.o)
 .ARM.attributes
                0x00000000000000b9       0x32 NuttX/nuttx/arch/arm/src/libarch.a(stm32_lowputc.o)
 .ARM.attributes
                0x00000000000000eb       0x32 NuttX/nuttx/arch/arm/src/libarch.a(stm32_pwr.o)
 .ARM.attributes
                0x000000000000011d       0x32 NuttX/nuttx/arch/arm/src/libarch.a(arm_doirq.o)
 .ARM.attributes
                0x000000000000014f       0x32 NuttX/nuttx/arch/arm/src/libarch.a(arm_modifyreg32.o)
 .ARM.attributes
                0x0000000000000181       0x32 NuttX/nuttx/arch/arm/src/libarch.a(arm_udelay.o)
 .ARM.attributes
                0x00000000000001b3       0x32 NuttX/nuttx/arch/arm/src/libarch.a(arm_cache.o)
 .ARM.attributes
                0x00000000000001e5       0x32 NuttX/nuttx/arch/arm/src/libarch.a(stm32_irq.o)
 .ARM.attributes
                0x0000000000000217       0x32 NuttX/nuttx/arch/arm/src/libarch.a(arm_hardfault.o)
 .ARM.attributes
                0x0000000000000249       0x32 NuttX/nuttx/arch/arm/src/libarch.a(arm_svcall.o)
 .ARM.attributes
                0x000000000000027b       0x1e NuttX/nuttx/libs/libc/libc.a(arch_memcpy.o)
 .ARM.attributes
                0x0000000000000299       0x32 NuttX/nuttx/libs/libc/libc.a(lib_assert.o)
 .ARM.attributes
                0x00000000000002cb       0x32 NuttX/nuttx/libs/libc/libc.a(lib_abort.o)
 .ARM.attributes
                0x00000000000002fd       0x32 boards/hkust/nxt/src/libdrivers_board.a(bootloader_main.c.obj)
 .ARM.attributes
                0x000000000000032f       0x32 boards/hkust/nxt/src/libdrivers_board.a(usb.c.obj)
 .ARM.attributes
                0x0000000000000361       0x32 NuttX/nuttx/sched/libsched.a(nx_start.o)
 .ARM.attributes
                0x0000000000000393       0x32 NuttX/nuttx/sched/libsched.a(nx_bringup.o)
 .ARM.attributes
                0x00000000000003c5       0x32 NuttX/nuttx/sched/libsched.a(irq_attach.o)
 .ARM.attributes
                0x00000000000003f7       0x32 NuttX/nuttx/sched/libsched.a(irq_dispatch.o)
 .ARM.attributes
                0x0000000000000429       0x32 NuttX/nuttx/sched/libsched.a(irq_unexpectedisr.o)
 .ARM.attributes
                0x000000000000045b       0x32 NuttX/nuttx/sched/libsched.a(sched_lock.o)
 .ARM.attributes
                0x000000000000048d       0x32 NuttX/nuttx/sched/libsched.a(sched_unlock.o)
 .ARM.attributes
                0x00000000000004bf       0x32 NuttX/nuttx/sched/libsched.a(task_create.o)
 .ARM.attributes
                0x00000000000004f1       0x32 NuttX/nuttx/sched/libsched.a(task_init.o)
 .ARM.attributes
                0x0000000000000523       0x32 NuttX/nuttx/sched/libsched.a(task_setup.o)
 .ARM.attributes
                0x0000000000000555       0x32 NuttX/nuttx/sched/libsched.a(task_activate.o)
 .ARM.attributes
                0x0000000000000587       0x32 NuttX/nuttx/sched/libsched.a(task_start.o)
 .ARM.attributes
                0x00000000000005b9       0x32 NuttX/nuttx/sched/libsched.a(exit.o)
 .ARM.attributes
                0x00000000000005eb       0x32 NuttX/nuttx/sched/libsched.a(group_create.o)
 .ARM.attributes
                0x000000000000061d       0x32 NuttX/nuttx/sched/libsched.a(group_leave.o)
 .ARM.attributes
                0x000000000000064f       0x32 NuttX/nuttx/sched/libsched.a(group_setupidlefiles.o)
 .ARM.attributes
                0x0000000000000681       0x32 NuttX/nuttx/sched/libsched.a(group_setuptaskfiles.o)
 .ARM.attributes
                0x00000000000006b3       0x32 NuttX/nuttx/sched/libsched.a(irq_initialize.o)
 .ARM.attributes
                0x00000000000006e5       0x32 NuttX/nuttx/sched/libsched.a(sched_releasetcb.o)
 .ARM.attributes
                0x0000000000000717       0x32 NuttX/nuttx/sched/libsched.a(sem_destroy.o)
 .ARM.attributes
                0x0000000000000749       0x32 NuttX/nuttx/sched/libsched.a(sig_procmask.o)
 .ARM.attributes
                0x000000000000077b       0x32 NuttX/nuttx/sched/libsched.a(sig_unmaskpendingsignal.o)
 .ARM.attributes
                0x00000000000007ad       0x32 NuttX/nuttx/sched/libsched.a(sig_removependingsignal.o)
 .ARM.attributes
                0x00000000000007df       0x32 NuttX/nuttx/sched/libsched.a(sig_releasependingsignal.o)
 .ARM.attributes
                0x0000000000000811       0x32 NuttX/nuttx/sched/libsched.a(sig_lowest.o)
 .ARM.attributes
                0x0000000000000843       0x32 NuttX/nuttx/sched/libsched.a(sig_cleanup.o)
 .ARM.attributes
                0x0000000000000875       0x32 NuttX/nuttx/sched/libsched.a(sig_dispatch.o)
 .ARM.attributes
                0x00000000000008a7       0x32 NuttX/nuttx/sched/libsched.a(sig_deliver.o)
 .ARM.attributes
                0x00000000000008d9       0x32 NuttX/nuttx/sched/libsched.a(sig_default.o)
 .ARM.attributes
                0x000000000000090b       0x32 NuttX/nuttx/sched/libsched.a(task_exithook.o)
 .ARM.attributes
                0x000000000000093d       0x32 NuttX/nuttx/sched/libsched.a(task_recover.o)
 .ARM.attributes
                0x000000000000096f       0x32 NuttX/nuttx/sched/libsched.a(task_cancelpt.o)
 .ARM.attributes
                0x00000000000009a1       0x32 NuttX/nuttx/sched/libsched.a(wd_recover.o)
 .ARM.attributes
                0x00000000000009d3       0x32 NuttX/nuttx/sched/libsched.a(group_setupstreams.o)
 .ARM.attributes
                0x0000000000000a05       0x32 NuttX/nuttx/sched/libsched.a(sched_gettcb.o)
 .ARM.attributes
                0x0000000000000a37       0x32 NuttX/nuttx/sched/libsched.a(sched_suspend.o)
 .ARM.attributes
                0x0000000000000a69       0x32 NuttX/nuttx/sched/libsched.a(sched_continue.o)
 .ARM.attributes
                0x0000000000000a9b       0x32 NuttX/nuttx/sched/libsched.a(sem_recover.o)
 .ARM.attributes
                0x0000000000000acd       0x32 NuttX/nuttx/sched/libsched.a(sem_waitirq.o)
 .ARM.attributes
                0x0000000000000aff       0x32 NuttX/nuttx/sched/libsched.a(sig_initialize.o)
 .ARM.attributes
                0x0000000000000b31       0x32 NuttX/nuttx/sched/libsched.a(sig_action.o)
 .ARM.attributes
                0x0000000000000b63       0x32 NuttX/nuttx/sched/libsched.a(sig_pending.o)
 .ARM.attributes
                0x0000000000000b95       0x32 NuttX/nuttx/sched/libsched.a(sig_findaction.o)
 .ARM.attributes
                0x0000000000000bc7       0x32 NuttX/nuttx/sched/libsched.a(sig_allocpendingsigaction.o)
 .ARM.attributes
                0x0000000000000bf9       0x32 NuttX/nuttx/sched/libsched.a(sig_releasependingsigaction.o)
 .ARM.attributes
                0x0000000000000c2b       0x32 NuttX/nuttx/sched/libsched.a(wd_cancel.o)
 .ARM.attributes
                0x0000000000000c5d       0x32 NuttX/nuttx/sched/libsched.a(sched_addblocked.o)
 .ARM.attributes
                0x0000000000000c8f       0x32 NuttX/nuttx/sched/libsched.a(sched_removeblocked.o)
 .ARM.attributes
                0x0000000000000cc1       0x32 NuttX/nuttx/sched/libsched.a(wd_initialize.o)
 .ARM.attributes
                0x0000000000000cf3       0x32 NuttX/nuttx/sched/libsched.a(sched_addprioritized.o)
 .ARM.attributes
                0x0000000000000d25       0x32 NuttX/apps/libapps.a(cdcacm_main.c.src.NxtPX4.PX4-Autopilot.platforms.nuttx.NuttX.apps.system.cdcacm.o)
 .ARM.attributes
                0x0000000000000d57       0x32 NuttX/nuttx/arch/arm/src/libarch.a(stm32_allocateheap.o)
 .ARM.attributes
                0x0000000000000d89       0x32 NuttX/nuttx/arch/arm/src/libarch.a(stm32_gpio.o)
 .ARM.attributes
                0x0000000000000dbb       0x32 NuttX/nuttx/arch/arm/src/libarch.a(arm_assert.o)
 .ARM.attributes
                0x0000000000000ded       0x32 NuttX/nuttx/arch/arm/src/libarch.a(arm_blocktask.o)
 .ARM.attributes
                0x0000000000000e1f       0x32 NuttX/nuttx/arch/arm/src/libarch.a(arm_copyfullstate.o)
 .ARM.attributes
                0x0000000000000e51       0x32 NuttX/nuttx/arch/arm/src/libarch.a(arm_createstack.o)
 .ARM.attributes
                0x0000000000000e83       0x32 NuttX/nuttx/arch/arm/src/libarch.a(arm_exit.o)
 .ARM.attributes
                0x0000000000000eb5       0x32 NuttX/nuttx/arch/arm/src/libarch.a(arm_initialize.o)
 .ARM.attributes
                0x0000000000000ee7       0x32 NuttX/nuttx/arch/arm/src/libarch.a(arm_initialstate.o)
 .ARM.attributes
                0x0000000000000f19       0x32 NuttX/nuttx/arch/arm/src/libarch.a(arm_interruptcontext.o)
 .ARM.attributes
                0x0000000000000f4b       0x32 NuttX/nuttx/arch/arm/src/libarch.a(arm_releasepending.o)
 .ARM.attributes
                0x0000000000000f7d       0x32 NuttX/nuttx/arch/arm/src/libarch.a(arm_releasestack.o)
 .ARM.attributes
                0x0000000000000faf       0x32 NuttX/nuttx/arch/arm/src/libarch.a(arm_schedulesigaction.o)
 .ARM.attributes
                0x0000000000000fe1       0x32 NuttX/nuttx/arch/arm/src/libarch.a(arm_sigdeliver.o)
 .ARM.attributes
                0x0000000000001013       0x32 NuttX/nuttx/arch/arm/src/libarch.a(arm_stackframe.o)
 .ARM.attributes
                0x0000000000001045       0x32 NuttX/nuttx/arch/arm/src/libarch.a(arm_unblocktask.o)
 .ARM.attributes
                0x0000000000001077       0x32 NuttX/nuttx/arch/arm/src/libarch.a(arm_usestack.o)
 .ARM.attributes
                0x00000000000010a9       0x32 NuttX/nuttx/arch/arm/src/libarch.a(arm_idle.o)
 .ARM.attributes
                0x00000000000010db       0x32 NuttX/nuttx/arch/arm/src/libarch.a(arm_checkstack.o)
 .ARM.attributes
                0x000000000000110d       0x1e NuttX/nuttx/arch/arm/src/libarch.a(arm_fullcontextrestore.o)
 .ARM.attributes
                0x000000000000112b       0x1e NuttX/nuttx/arch/arm/src/libarch.a(arm_switchcontext.o)
 .ARM.attributes
                0x0000000000001149       0x32 NuttX/nuttx/arch/arm/src/libarch.a(stm32_serial.o)
 .ARM.attributes
                0x000000000000117b       0x32 NuttX/nuttx/arch/arm/src/libarch.a(stm32_otgdev.o)
 .ARM.attributes
                0x00000000000011ad       0x32 NuttX/nuttx/arch/arm/src/libarch.a(arm_mdelay.o)
 .ARM.attributes
                0x00000000000011df       0x32 NuttX/nuttx/mm/libmm.a(umm_initialize.o)
 .ARM.attributes
                0x0000000000001211       0x32 NuttX/nuttx/mm/libmm.a(umm_free.o)
 .ARM.attributes
                0x0000000000001243       0x32 NuttX/nuttx/mm/libmm.a(umm_malloc.o)
 .ARM.attributes
                0x0000000000001275       0x32 NuttX/nuttx/mm/libmm.a(umm_memalign.o)
 .ARM.attributes
                0x00000000000012a7       0x32 NuttX/nuttx/mm/libmm.a(umm_zalloc.o)
 .ARM.attributes
                0x00000000000012d9       0x32 NuttX/nuttx/mm/libmm.a(mm_initialize.o)
 .ARM.attributes
                0x000000000000130b       0x32 NuttX/nuttx/mm/libmm.a(mm_sem.o)
 .ARM.attributes
                0x000000000000133d       0x32 NuttX/nuttx/mm/libmm.a(mm_addfreechunk.o)
 .ARM.attributes
                0x000000000000136f       0x32 NuttX/nuttx/mm/libmm.a(mm_size2ndx.o)
 .ARM.attributes
                0x00000000000013a1       0x32 NuttX/nuttx/mm/libmm.a(mm_free.o)
 .ARM.attributes
                0x00000000000013d3       0x32 NuttX/nuttx/mm/libmm.a(mm_malloc.o)
 .ARM.attributes
                0x0000000000001405       0x32 NuttX/nuttx/mm/libmm.a(mm_memalign.o)
 .ARM.attributes
                0x0000000000001437       0x32 NuttX/nuttx/mm/libmm.a(mm_zalloc.o)
 .ARM.attributes
                0x0000000000001469       0x37 NuttX/nuttx/mm/libmm.a(umm_globals.o)
 .ARM.attributes
                0x00000000000014a0       0x32 NuttX/nuttx/mm/libmm.a(mm_shrinkchunk.o)
 .ARM.attributes
                0x00000000000014d2       0x32 NuttX/nuttx/libs/libc/libc.a(lib_errno.o)
 .ARM.attributes
                0x0000000000001504       0x32 NuttX/nuttx/libs/libc/libc.a(lib_stream.o)
 .ARM.attributes
                0x0000000000001536       0x32 NuttX/nuttx/libs/libc/libc.a(lib_filesem.o)
 .ARM.attributes
                0x0000000000001568       0x32 NuttX/nuttx/libs/libc/libc.a(sq_addlast.o)
 .ARM.attributes
                0x000000000000159a       0x32 NuttX/nuttx/libs/libc/libc.a(sq_rem.o)
 .ARM.attributes
                0x00000000000015cc       0x32 NuttX/nuttx/libs/libc/libc.a(sq_remfirst.o)
 .ARM.attributes
                0x00000000000015fe       0x32 NuttX/nuttx/libs/libc/libc.a(sq_remafter.o)
 .ARM.attributes
                0x0000000000001630       0x32 NuttX/nuttx/libs/libc/libc.a(dq_addlast.o)
 .ARM.attributes
                0x0000000000001662       0x32 NuttX/nuttx/libs/libc/libc.a(dq_addfirst.o)
 .ARM.attributes
                0x0000000000001694       0x32 NuttX/nuttx/libs/libc/libc.a(dq_rem.o)
 .ARM.attributes
                0x00000000000016c6       0x32 NuttX/nuttx/libs/libc/libc.a(task_startup.o)
 .ARM.attributes
                0x00000000000016f8       0x32 NuttX/nuttx/libs/libc/libc.a(sem_init.o)
 .ARM.attributes
                0x000000000000172a       0x32 NuttX/nuttx/libs/libc/libc.a(sig_addset.o)
 .ARM.attributes
                0x000000000000175c       0x32 NuttX/nuttx/libs/libc/libc.a(sig_delset.o)
 .ARM.attributes
                0x000000000000178e       0x32 NuttX/nuttx/libs/libc/libc.a(sig_emptyset.o)
 .ARM.attributes
                0x00000000000017c0       0x32 NuttX/nuttx/libs/libc/libc.a(sig_ismember.o)
 .ARM.attributes
                0x00000000000017f2       0x32 NuttX/nuttx/libs/libc/libc.a(lib_printf.o)
 .ARM.attributes
                0x0000000000001824       0x32 NuttX/nuttx/libs/libc/libc.a(lib_libflushall.o)
 .ARM.attributes
                0x0000000000001856       0x32 NuttX/nuttx/libs/libc/libc.a(lib_libfflush.o)
 .ARM.attributes
                0x0000000000001888       0x32 NuttX/nuttx/libs/libc/libc.a(lib_vfprintf.o)
 .ARM.attributes
                0x00000000000018ba       0x32 NuttX/nuttx/libs/libc/libc.a(lib_stdoutstream.o)
 .ARM.attributes
                0x00000000000018ec       0x32 NuttX/nuttx/libs/libc/libc.a(lib_memset.o)
 .ARM.attributes
                0x000000000000191e       0x32 NuttX/nuttx/libs/libc/libc.a(lib_strcpy.o)
 .ARM.attributes
                0x0000000000001950       0x32 NuttX/nuttx/libs/libc/libc.a(lib_strlen.o)
 .ARM.attributes
                0x0000000000001982       0x32 NuttX/nuttx/libs/libc/libc.a(lib_strncpy.o)
 .ARM.attributes
                0x00000000000019b4       0x32 NuttX/nuttx/libs/libc/libc.a(lib_cfspeed.o)
 .ARM.attributes
                0x00000000000019e6       0x32 NuttX/nuttx/libs/libc/libc.a(tls_getinfo.o)
 .ARM.attributes
                0x0000000000001a18       0x32 NuttX/nuttx/libs/libc/libc.a(lib_streamsem.o)
 .ARM.attributes
                0x0000000000001a4a       0x32 NuttX/nuttx/libs/libc/libc.a(lib_libnoflush.o)
 .ARM.attributes
                0x0000000000001a7c       0x32 NuttX/nuttx/libs/libc/libc.a(lib_libvsprintf.o)
 .ARM.attributes
                0x0000000000001aae       0x32 NuttX/nuttx/libs/libc/libc.a(lib_ultoa_invert.o)
 .ARM.attributes
                0x0000000000001ae0       0x32 NuttX/nuttx/libs/libc/libc.a(lib_dtoa_engine.o)
 .ARM.attributes
                0x0000000000001b12       0x37 NuttX/nuttx/libs/libc/libc.a(lib_dtoa_data.o)
 .ARM.attributes
                0x0000000000001b49       0x32 NuttX/nuttx/libs/libc/libc.a(lib_fputc.o)
 .ARM.attributes
                0x0000000000001b7b       0x32 NuttX/nuttx/libs/libc/libc.a(lib_strnlen.o)
 .ARM.attributes
                0x0000000000001bad       0x32 NuttX/nuttx/libs/libc/libc.a(lib_libfwrite.o)
 .ARM.attributes
                0x0000000000001bdf       0x32 NuttX/nuttx/libs/libc/libc.a(lib_rdflush.o)
 .ARM.attributes
                0x0000000000001c11       0x32 NuttX/nuttx/libs/libc/libc.a(lib_fseek.o)
 .ARM.attributes
                0x0000000000001c43       0x32 NuttX/nuttx/libs/libc/libc.a(lib_wrflush.o)
 .ARM.attributes
                0x0000000000001c75       0x32 platforms/nuttx/src/bootloader/common/libbootloader.a(bl.c.obj)
 .ARM.attributes
                0x0000000000001ca7       0x32 platforms/nuttx/src/bootloader/common/lib/libbootloader_lib.a(cdcacm.c.obj)
 .ARM.attributes
                0x0000000000001cd9       0x32 platforms/nuttx/src/bootloader/common/lib/libbootloader_lib.a(uart.c.obj)
 .ARM.attributes
                0x0000000000001d0b       0x32 NuttX/nuttx/boards/libboards.a(boardctl.o)
 .ARM.attributes
                0x0000000000001d3d       0x32 NuttX/nuttx/drivers/libdrivers.a(serial.o)
 .ARM.attributes
                0x0000000000001d6f       0x32 NuttX/nuttx/drivers/libdrivers.a(serial_io.o)
 .ARM.attributes
                0x0000000000001da1       0x32 NuttX/nuttx/drivers/libdrivers.a(syslog_flush.o)
 .ARM.attributes
                0x0000000000001dd3       0x32 NuttX/nuttx/drivers/libdrivers.a(syslog_initialize.o)
 .ARM.attributes
                0x0000000000001e05       0x32 NuttX/nuttx/drivers/libdrivers.a(cdcacm.o)
 .ARM.attributes
                0x0000000000001e37       0x32 NuttX/nuttx/drivers/libdrivers.a(cdcacm_desc.o)
 .ARM.attributes
                0x0000000000001e69       0x32 NuttX/nuttx/drivers/libdrivers.a(dev_null.o)
 .ARM.attributes
                0x0000000000001e9b       0x32 NuttX/nuttx/drivers/libdrivers.a(syslog_channel.o)
 .ARM.attributes
                0x0000000000001ecd       0x32 NuttX/nuttx/fs/libfs.a(fs_initialize.o)
 .ARM.attributes
                0x0000000000001eff       0x32 NuttX/nuttx/fs/libfs.a(fs_files.o)
 .ARM.attributes
                0x0000000000001f31       0x32 NuttX/nuttx/fs/libfs.a(fs_inode.o)
 .ARM.attributes
                0x0000000000001f63       0x32 NuttX/nuttx/fs/libfs.a(fs_inodereserve.o)
 .ARM.attributes
                0x0000000000001f95       0x32 NuttX/nuttx/fs/libfs.a(fs_inodesearch.o)
 .ARM.attributes
                0x0000000000001fc7       0x32 NuttX/nuttx/fs/libfs.a(fs_close.o)
 .ARM.attributes
                0x0000000000001ff9       0x32 NuttX/nuttx/fs/libfs.a(fs_dup2.o)
 .ARM.attributes
                0x000000000000202b       0x32 NuttX/nuttx/fs/libfs.a(fs_lseek.o)
 .ARM.attributes
                0x000000000000205d       0x32 NuttX/nuttx/fs/libfs.a(fs_open.o)
 .ARM.attributes
                0x000000000000208f       0x32 NuttX/nuttx/fs/libfs.a(fs_read.o)
 .ARM.attributes
                0x00000000000020c1       0x32 NuttX/nuttx/fs/libfs.a(fs_write.o)
 .ARM.attributes
                0x00000000000020f3       0x32 NuttX/nuttx/fs/libfs.a(fs_fdopen.o)
 .ARM.attributes
                0x0000000000002125       0x32 NuttX/nuttx/fs/libfs.a(fs_registerdriver.o)
 .ARM.attributes
                0x0000000000002157       0x32 NuttX/nuttx/fs/libfs.a(fs_unregisterdriver.o)
 .ARM.attributes
                0x0000000000002189       0x32 NuttX/nuttx/fs/libfs.a(fs_inodeaddref.o)
 .ARM.attributes
                0x00000000000021bb       0x32 NuttX/nuttx/fs/libfs.a(fs_inodefind.o)
 .ARM.attributes
                0x00000000000021ed       0x32 NuttX/nuttx/fs/libfs.a(fs_inoderelease.o)
 .ARM.attributes
                0x000000000000221f       0x32 NuttX/nuttx/fs/libfs.a(fs_inoderemove.o)
 .ARM.attributes
                0x0000000000002251       0x32 NuttX/nuttx/fs/libfs.a(fs_inodefree.o)
 .ARM.attributes
                0x0000000000002283       0x32 NuttX/nuttx/sched/libsched.a(clock_initialize.o)
 .ARM.attributes
                0x00000000000022b5       0x32 NuttX/nuttx/sched/libsched.a(sched_getfiles.o)
 .ARM.attributes
                0x00000000000022e7       0x32 NuttX/nuttx/sched/libsched.a(sched_addreadytorun.o)
 .ARM.attributes
                0x0000000000002319       0x32 NuttX/nuttx/sched/libsched.a(sched_removereadytorun.o)
 .ARM.attributes
                0x000000000000234b       0x32 NuttX/nuttx/sched/libsched.a(sched_mergepending.o)
 .ARM.attributes
                0x000000000000237d       0x32 NuttX/nuttx/sched/libsched.a(sched_getstreams.o)
 .ARM.attributes
                0x00000000000023af       0x32 NuttX/nuttx/sched/libsched.a(sched_idletask.o)
 .ARM.attributes
                0x00000000000023e1       0x32 NuttX/nuttx/sched/libsched.a(sched_self.o)
 .ARM.attributes
                0x0000000000002413       0x32 NuttX/nuttx/sched/libsched.a(sched_get_stackinfo.o)
 .ARM.attributes
                0x0000000000002445       0x32 NuttX/nuttx/sched/libsched.a(sem_wait.o)
 .ARM.attributes
                0x0000000000002477       0x32 NuttX/nuttx/sched/libsched.a(sem_trywait.o)
 .ARM.attributes
                0x00000000000024a9       0x32 NuttX/nuttx/sched/libsched.a(sem_post.o)
 .ARM.attributes
                0x00000000000024db       0x32 NuttX/nuttx/sched/libsched.a(sem_reset.o)
 .ARM.attributes
                0x000000000000250d       0x32 NuttX/nuttx/sched/libsched.a(sig_kill.o)
 .ARM.attributes
                0x000000000000253f       0x32 NuttX/nuttx/sched/libsched.a(sig_usleep.o)
 .ARM.attributes
                0x0000000000002571       0x32 NuttX/nuttx/sched/libsched.a(task_exit.o)
 .ARM.attributes
                0x00000000000025a3       0x32 NuttX/nuttx/sched/libsched.a(task_getpid.o)
 .ARM.attributes
                0x00000000000025d5       0x32 NuttX/nuttx/sched/libsched.a(task_terminate.o)
 .ARM.attributes
                0x0000000000002607       0x32 NuttX/nuttx/sched/libsched.a(wd_start.o)
 .ARM.attributes
                0x0000000000002639       0x32 NuttX/nuttx/sched/libsched.a(sig_nanosleep.o)
 .ARM.attributes
                0x000000000000266b       0x32 NuttX/nuttx/sched/libsched.a(sig_timedwait.o)
 .ARM.attributes
                0x000000000000269d       0x32 NuttX/nuttx/arch/arm/src/libarch.a(stm32_timerisr.o)
 .ARM.attributes
                0x00000000000026cf       0x32 NuttX/nuttx/mm/libmm.a(umm_realloc.o)
 .ARM.attributes
                0x0000000000002701       0x32 NuttX/nuttx/mm/libmm.a(mm_realloc.o)
 .ARM.attributes
                0x0000000000002733       0x32 NuttX/nuttx/libs/libc/libc.a(lib_umask.o)
 .ARM.attributes
                0x0000000000002765       0x32 NuttX/nuttx/libs/libc/libc.a(sq_addfirst.o)
 .ARM.attributes
                0x0000000000002797       0x32 NuttX/nuttx/libs/libc/libc.a(sq_addafter.o)
 .ARM.attributes
                0x00000000000027c9       0x32 NuttX/nuttx/libs/libc/libc.a(clock_ticks2time.o)
 .ARM.attributes
                0x00000000000027fb       0x32 NuttX/nuttx/libs/libc/libc.a(clock_time2ticks.o)
 .ARM.attributes
                0x000000000000282d       0x32 NuttX/nuttx/libs/libc/libc.a(sem_getvalue.o)
 .ARM.attributes
                0x000000000000285f       0x32 NuttX/nuttx/libs/libc/libc.a(sem_setprotocol.o)
 .ARM.attributes
                0x0000000000002891       0x32 NuttX/nuttx/libs/libc/libc.a(lib_asprintf.o)
 .ARM.attributes
                0x00000000000028c3       0x32 NuttX/nuttx/libs/libc/libc.a(lib_snprintf.o)
 .ARM.attributes
                0x00000000000028f5       0x32 NuttX/nuttx/libs/libc/libc.a(lib_vasprintf.o)
 .ARM.attributes
                0x0000000000002927       0x32 NuttX/nuttx/libs/libc/libc.a(lib_memoutstream.o)
 .ARM.attributes
                0x0000000000002959       0x32 NuttX/nuttx/libs/libc/libc.a(lib_nulloutstream.o)
 .ARM.attributes
                0x000000000000298b       0x32 NuttX/nuttx/libs/libc/libc.a(lib_atol.o)
 .ARM.attributes
                0x00000000000029bd       0x32 NuttX/nuttx/libs/libc/libc.a(lib_strtol.o)
 .ARM.attributes
                0x00000000000029ef       0x32 NuttX/nuttx/libs/libc/libc.a(lib_strtoul.o)
 .ARM.attributes
                0x0000000000002a21       0x32 NuttX/nuttx/libs/libc/libc.a(lib_checkbase.o)
 .ARM.attributes
                0x0000000000002a53       0x32 NuttX/nuttx/libs/libc/libc.a(lib_isbasedigit.o)
 .ARM.attributes
                0x0000000000002a85       0x32 NuttX/nuttx/libs/libc/libc.a(lib_skipspace.o)
 .ARM.attributes
                0x0000000000002ab7       0x32 NuttX/nuttx/libs/libc/libc.a(lib_strdup.o)
 .ARM.attributes
                0x0000000000002ae9       0x32 NuttX/nuttx/libs/libc/libc.a(lib_strtok.o)
 .ARM.attributes
                0x0000000000002b1b       0x32 NuttX/nuttx/libs/libc/libc.a(lib_strtokr.o)
 .ARM.attributes
                0x0000000000002b4d       0x32 NuttX/nuttx/libs/libc/libc.a(lib_strchr.o)
 .ARM.attributes
                0x0000000000002b7f       0x32 NuttX/nuttx/libs/libc/libc.a(lib_tcgetattr.o)
 .ARM.attributes
                0x0000000000002bb1       0x32 NuttX/nuttx/libs/libc/libc.a(lib_tcsetattr.o)
 .ARM.attributes
                0x0000000000002be3       0x32 NuttX/nuttx/libs/libc/libc.a(task_getinfo.o)
 .ARM.attributes
                0x0000000000002c15       0x32 NuttX/nuttx/libs/libc/libc.a(lib_isspace.o)
 .ARM.attributes
                0x0000000000002c47       0x32 NuttX/nuttx/libs/libc/libc.a(lib_tcflush.o)
 .ARM.attributes
                0x0000000000002c79       0x32 NuttX/nuttx/drivers/libdrivers.a(tcdrain.o)
 .ARM.attributes
                0x0000000000002cab       0x32 NuttX/nuttx/fs/libfs.a(fs_ioctl.o)
 .ARM.attributes
                0x0000000000002cdd       0x32 NuttX/nuttx/fs/libfs.a(fs_inodegetpath.o)
 .ARM.attributes
                0x0000000000002d0f       0x32 NuttX/nuttx/fs/libfs.a(fs_fcntl.o)
 .ARM.attributes
                0x0000000000002d41       0x32 NuttX/nuttx/fs/libfs.a(fs_dup.o)
 .ARM.attributes
                0x0000000000002d73       0x32 NuttX/nuttx/sched/libsched.a(sched_processtimer.o)
 .ARM.attributes
                0x0000000000002da5       0x32 NuttX/nuttx/libs/libc/libc.a(lib_strcat.o)
 .ARM.attributes
                0x0000000000002dd7       0x1e /opt/gcc/bin/../lib/gcc/arm-none-eabi/9.3.1/thumb/v7e-m+dp/hard/libgcc.a(_aeabi_ldivmod.o)
 .ARM.attributes
                0x0000000000002df5       0x1e /opt/gcc/bin/../lib/gcc/arm-none-eabi/9.3.1/thumb/v7e-m+dp/hard/libgcc.a(_aeabi_uldivmod.o)
 .ARM.attributes
                0x0000000000002e13       0x32 /opt/gcc/bin/../lib/gcc/arm-none-eabi/9.3.1/thumb/v7e-m+dp/hard/libgcc.a(_fixunsdfdi.o)
 .ARM.attributes
                0x0000000000002e45       0x32 /opt/gcc/bin/../lib/gcc/arm-none-eabi/9.3.1/thumb/v7e-m+dp/hard/libgcc.a(_udivmoddi4.o)
 .ARM.attributes
                0x0000000000002e77       0x1e /opt/gcc/bin/../lib/gcc/arm-none-eabi/9.3.1/thumb/v7e-m+dp/hard/libgcc.a(_dvmd_tls.o)
 .ARM.attributes
                0x0000000000002e95       0x32 platforms/nuttx/src/bootloader/stm/stm32h7/arch_bootloader/libarch_bootloader.a(main.c.obj)
 .ARM.attributes
                0x0000000000002ec7       0x32 platforms/nuttx/src/bootloader/stm/stm32h7/arch_bootloader/libarch_bootloader.a(systick.c.obj)
 .ARM.attributes
                0x0000000000002ef9       0x32 platforms/nuttx/src/px4/stm/stm32h7/board_reset/libarch_board_reset.a(board_reset.cpp.obj)
 .ARM.attributes
                0x0000000000002f2b       0x32 NuttX/nuttx/arch/arm/src/libarch.a(arm_systemreset.o)
 .ARM.attributes
                0x0000000000002f5d       0x32 NuttX/nuttx/arch/arm/src/libarch.a(stm32_flash.o)
 .ARM.attributes
                0x0000000000002f8f       0x32 platforms/nuttx/src/bootloader/common/lib/libbootloader_lib.a(flash_cache.c.obj)

.debug_abbrev   0x0000000000000000    0x1ba28
 *(.debug_abbrev)
 .debug_abbrev  0x0000000000000000       0x84 NuttX/nuttx/arch/arm/src/libarch.a(arm_vectors.o)
 .debug_abbrev  0x0000000000000084       0x14 NuttX/nuttx/arch/arm/src/libarch.a(arm_exception.o)
 .debug_abbrev  0x0000000000000098      0x1af NuttX/nuttx/arch/arm/src/libarch.a(stm32_start.o)
 .debug_abbrev  0x0000000000000247      0x1d9 NuttX/nuttx/arch/arm/src/libarch.a(stm32_rcc.o)
 .debug_abbrev  0x0000000000000420       0xd2 NuttX/nuttx/arch/arm/src/libarch.a(stm32_lowputc.o)
 .debug_abbrev  0x00000000000004f2      0x30a NuttX/nuttx/arch/arm/src/libarch.a(stm32_pwr.o)
 .debug_abbrev  0x00000000000007fc      0x10b NuttX/nuttx/arch/arm/src/libarch.a(arm_doirq.o)
 .debug_abbrev  0x0000000000000907      0x1a8 NuttX/nuttx/arch/arm/src/libarch.a(arm_modifyreg32.o)
 .debug_abbrev  0x0000000000000aaf       0x92 NuttX/nuttx/arch/arm/src/libarch.a(arm_udelay.o)
 .debug_abbrev  0x0000000000000b41       0xfd NuttX/nuttx/arch/arm/src/libarch.a(arm_cache.o)
 .debug_abbrev  0x0000000000000c3e      0x239 NuttX/nuttx/arch/arm/src/libarch.a(stm32_irq.o)
 .debug_abbrev  0x0000000000000e77      0x1d7 NuttX/nuttx/arch/arm/src/libarch.a(arm_hardfault.o)
 .debug_abbrev  0x000000000000104e      0x16f NuttX/nuttx/arch/arm/src/libarch.a(arm_svcall.o)
 .debug_abbrev  0x00000000000011bd       0x14 NuttX/nuttx/libs/libc/libc.a(arch_memcpy.o)
 .debug_abbrev  0x00000000000011d1       0xe0 NuttX/nuttx/libs/libc/libc.a(lib_assert.o)
 .debug_abbrev  0x00000000000012b1       0x73 NuttX/nuttx/libs/libc/libc.a(lib_abort.o)
 .debug_abbrev  0x0000000000001324      0x178 boards/hkust/nxt/src/libdrivers_board.a(bootloader_main.c.obj)
 .debug_abbrev  0x000000000000149c      0x197 boards/hkust/nxt/src/libdrivers_board.a(usb.c.obj)
 .debug_abbrev  0x0000000000001633      0x2b1 NuttX/nuttx/sched/libsched.a(nx_start.o)
 .debug_abbrev  0x00000000000018e4      0x1aa NuttX/nuttx/sched/libsched.a(nx_bringup.o)
 .debug_abbrev  0x0000000000001a8e      0x28c NuttX/nuttx/sched/libsched.a(irq_attach.o)
 .debug_abbrev  0x0000000000001d1a      0x200 NuttX/nuttx/sched/libsched.a(irq_dispatch.o)
 .debug_abbrev  0x0000000000001f1a      0x215 NuttX/nuttx/sched/libsched.a(irq_unexpectedisr.o)
 .debug_abbrev  0x000000000000212f      0x20b NuttX/nuttx/sched/libsched.a(sched_lock.o)
 .debug_abbrev  0x000000000000233a      0x305 NuttX/nuttx/sched/libsched.a(sched_unlock.o)
 .debug_abbrev  0x000000000000263f      0x2a8 NuttX/nuttx/sched/libsched.a(task_create.o)
 .debug_abbrev  0x00000000000028e7      0x2ac NuttX/nuttx/sched/libsched.a(task_init.o)
 .debug_abbrev  0x0000000000002b93      0x3e6 NuttX/nuttx/sched/libsched.a(task_setup.o)
 .debug_abbrev  0x0000000000002f79      0x2e7 NuttX/nuttx/sched/libsched.a(task_activate.o)
 .debug_abbrev  0x0000000000003260      0x23b NuttX/nuttx/sched/libsched.a(task_start.o)
 .debug_abbrev  0x000000000000349b      0x277 NuttX/nuttx/sched/libsched.a(exit.o)
 .debug_abbrev  0x0000000000003712      0x2ea NuttX/nuttx/sched/libsched.a(group_create.o)
 .debug_abbrev  0x00000000000039fc      0x255 NuttX/nuttx/sched/libsched.a(group_leave.o)
 .debug_abbrev  0x0000000000003c51      0x214 NuttX/nuttx/sched/libsched.a(group_setupidlefiles.o)
 .debug_abbrev  0x0000000000003e65      0x227 NuttX/nuttx/sched/libsched.a(group_setuptaskfiles.o)
 .debug_abbrev  0x000000000000408c      0x11a NuttX/nuttx/sched/libsched.a(irq_initialize.o)
 .debug_abbrev  0x00000000000041a6      0x38d NuttX/nuttx/sched/libsched.a(sched_releasetcb.o)
 .debug_abbrev  0x0000000000004533      0x120 NuttX/nuttx/sched/libsched.a(sem_destroy.o)
 .debug_abbrev  0x0000000000004653      0x398 NuttX/nuttx/sched/libsched.a(sig_procmask.o)
 .debug_abbrev  0x00000000000049eb      0x248 NuttX/nuttx/sched/libsched.a(sig_unmaskpendingsignal.o)
 .debug_abbrev  0x0000000000004c33      0x2ee NuttX/nuttx/sched/libsched.a(sig_removependingsignal.o)
 .debug_abbrev  0x0000000000004f21      0x265 NuttX/nuttx/sched/libsched.a(sig_releasependingsignal.o)
 .debug_abbrev  0x0000000000005186      0x12b NuttX/nuttx/sched/libsched.a(sig_lowest.o)
 .debug_abbrev  0x00000000000052b1      0x21c NuttX/nuttx/sched/libsched.a(sig_cleanup.o)
 .debug_abbrev  0x00000000000054cd      0x42a NuttX/nuttx/sched/libsched.a(sig_dispatch.o)
 .debug_abbrev  0x00000000000058f7      0x34a NuttX/nuttx/sched/libsched.a(sig_deliver.o)
 .debug_abbrev  0x0000000000005c41      0x47f NuttX/nuttx/sched/libsched.a(sig_default.o)
 .debug_abbrev  0x00000000000060c0      0x290 NuttX/nuttx/sched/libsched.a(task_exithook.o)
 .debug_abbrev  0x0000000000006350      0x200 NuttX/nuttx/sched/libsched.a(task_recover.o)
 .debug_abbrev  0x0000000000006550      0x2c4 NuttX/nuttx/sched/libsched.a(task_cancelpt.o)
 .debug_abbrev  0x0000000000006814      0x1e0 NuttX/nuttx/sched/libsched.a(wd_recover.o)
 .debug_abbrev  0x00000000000069f4      0x22f NuttX/nuttx/sched/libsched.a(group_setupstreams.o)
 .debug_abbrev  0x0000000000006c23      0x2f5 NuttX/nuttx/sched/libsched.a(sched_gettcb.o)
 .debug_abbrev  0x0000000000006f18      0x323 NuttX/nuttx/sched/libsched.a(sched_suspend.o)
 .debug_abbrev  0x000000000000723b      0x318 NuttX/nuttx/sched/libsched.a(sched_continue.o)
 .debug_abbrev  0x0000000000007553      0x304 NuttX/nuttx/sched/libsched.a(sem_recover.o)
 .debug_abbrev  0x0000000000007857      0x336 NuttX/nuttx/sched/libsched.a(sem_waitirq.o)
 .debug_abbrev  0x0000000000007b8d      0x27f NuttX/nuttx/sched/libsched.a(sig_initialize.o)
 .debug_abbrev  0x0000000000007e0c      0x345 NuttX/nuttx/sched/libsched.a(sig_action.o)
 .debug_abbrev  0x0000000000008151      0x394 NuttX/nuttx/sched/libsched.a(sig_pending.o)
 .debug_abbrev  0x00000000000084e5      0x1be NuttX/nuttx/sched/libsched.a(sig_findaction.o)
 .debug_abbrev  0x00000000000086a3      0x2d5 NuttX/nuttx/sched/libsched.a(sig_allocpendingsigaction.o)
 .debug_abbrev  0x0000000000008978      0x293 NuttX/nuttx/sched/libsched.a(sig_releasependingsigaction.o)
 .debug_abbrev  0x0000000000008c0b      0x327 NuttX/nuttx/sched/libsched.a(wd_cancel.o)
 .debug_abbrev  0x0000000000008f32      0x242 NuttX/nuttx/sched/libsched.a(sched_addblocked.o)
 .debug_abbrev  0x0000000000009174      0x222 NuttX/nuttx/sched/libsched.a(sched_removeblocked.o)
 .debug_abbrev  0x0000000000009396       0xa7 NuttX/nuttx/sched/libsched.a(wd_initialize.o)
 .debug_abbrev  0x000000000000943d      0x201 NuttX/nuttx/sched/libsched.a(sched_addprioritized.o)
 .debug_abbrev  0x000000000000963e      0x166 NuttX/apps/libapps.a(cdcacm_main.c.src.NxtPX4.PX4-Autopilot.platforms.nuttx.NuttX.apps.system.cdcacm.o)
 .debug_abbrev  0x00000000000097a4       0xb7 NuttX/nuttx/arch/arm/src/libarch.a(stm32_allocateheap.o)
 .debug_abbrev  0x000000000000985b      0x2c9 NuttX/nuttx/arch/arm/src/libarch.a(stm32_gpio.o)
 .debug_abbrev  0x0000000000009b24      0x2e2 NuttX/nuttx/arch/arm/src/libarch.a(arm_assert.o)
 .debug_abbrev  0x0000000000009e06      0x265 NuttX/nuttx/arch/arm/src/libarch.a(arm_blocktask.o)
 .debug_abbrev  0x000000000000a06b       0xc8 NuttX/nuttx/arch/arm/src/libarch.a(arm_copyfullstate.o)
 .debug_abbrev  0x000000000000a133      0x23d NuttX/nuttx/arch/arm/src/libarch.a(arm_createstack.o)
 .debug_abbrev  0x000000000000a370      0x2d1 NuttX/nuttx/arch/arm/src/libarch.a(arm_exit.o)
 .debug_abbrev  0x000000000000a641      0x182 NuttX/nuttx/arch/arm/src/libarch.a(arm_initialize.o)
 .debug_abbrev  0x000000000000a7c3      0x20d NuttX/nuttx/arch/arm/src/libarch.a(arm_initialstate.o)
 .debug_abbrev  0x000000000000a9d0       0xa5 NuttX/nuttx/arch/arm/src/libarch.a(arm_interruptcontext.o)
 .debug_abbrev  0x000000000000aa75      0x212 NuttX/nuttx/arch/arm/src/libarch.a(arm_releasepending.o)
 .debug_abbrev  0x000000000000ac87      0x1d1 NuttX/nuttx/arch/arm/src/libarch.a(arm_releasestack.o)
 .debug_abbrev  0x000000000000ae58      0x218 NuttX/nuttx/arch/arm/src/libarch.a(arm_schedulesigaction.o)
 .debug_abbrev  0x000000000000b070      0x2fd NuttX/nuttx/arch/arm/src/libarch.a(arm_sigdeliver.o)
 .debug_abbrev  0x000000000000b36d      0x205 NuttX/nuttx/arch/arm/src/libarch.a(arm_stackframe.o)
 .debug_abbrev  0x000000000000b572      0x246 NuttX/nuttx/arch/arm/src/libarch.a(arm_unblocktask.o)
 .debug_abbrev  0x000000000000b7b8      0x225 NuttX/nuttx/arch/arm/src/libarch.a(arm_usestack.o)
 .debug_abbrev  0x000000000000b9dd       0x8f NuttX/nuttx/arch/arm/src/libarch.a(arm_idle.o)
 .debug_abbrev  0x000000000000ba6c      0x2fc NuttX/nuttx/arch/arm/src/libarch.a(arm_checkstack.o)
 .debug_abbrev  0x000000000000bd68       0x14 NuttX/nuttx/arch/arm/src/libarch.a(arm_fullcontextrestore.o)
 .debug_abbrev  0x000000000000bd7c       0x14 NuttX/nuttx/arch/arm/src/libarch.a(arm_switchcontext.o)
 .debug_abbrev  0x000000000000bd90      0x46b NuttX/nuttx/arch/arm/src/libarch.a(stm32_serial.o)
 .debug_abbrev  0x000000000000c1fb      0x559 NuttX/nuttx/arch/arm/src/libarch.a(stm32_otgdev.o)
 .debug_abbrev  0x000000000000c754       0x8f NuttX/nuttx/arch/arm/src/libarch.a(arm_mdelay.o)
 .debug_abbrev  0x000000000000c7e3       0xc6 NuttX/nuttx/mm/libmm.a(umm_initialize.o)
 .debug_abbrev  0x000000000000c8a9       0xc9 NuttX/nuttx/mm/libmm.a(umm_free.o)
 .debug_abbrev  0x000000000000c972       0xcb NuttX/nuttx/mm/libmm.a(umm_malloc.o)
 .debug_abbrev  0x000000000000ca3d       0xcb NuttX/nuttx/mm/libmm.a(umm_memalign.o)
 .debug_abbrev  0x000000000000cb08       0xcb NuttX/nuttx/mm/libmm.a(umm_zalloc.o)
 .debug_abbrev  0x000000000000cbd3      0x18c NuttX/nuttx/mm/libmm.a(mm_initialize.o)
 .debug_abbrev  0x000000000000cd5f      0x175 NuttX/nuttx/mm/libmm.a(mm_sem.o)
 .debug_abbrev  0x000000000000ced4      0x128 NuttX/nuttx/mm/libmm.a(mm_addfreechunk.o)
 .debug_abbrev  0x000000000000cffc       0xf6 NuttX/nuttx/mm/libmm.a(mm_size2ndx.o)
 .debug_abbrev  0x000000000000d0f2      0x2b1 NuttX/nuttx/mm/libmm.a(mm_free.o)
 .debug_abbrev  0x000000000000d3a3      0x283 NuttX/nuttx/mm/libmm.a(mm_malloc.o)
 .debug_abbrev  0x000000000000d626      0x151 NuttX/nuttx/mm/libmm.a(mm_memalign.o)
 .debug_abbrev  0x000000000000d777       0xf3 NuttX/nuttx/mm/libmm.a(mm_zalloc.o)
 .debug_abbrev  0x000000000000d86a       0x6a NuttX/nuttx/mm/libmm.a(umm_globals.o)
 .debug_abbrev  0x000000000000d8d4      0x129 NuttX/nuttx/mm/libmm.a(mm_shrinkchunk.o)
 .debug_abbrev  0x000000000000d9fd       0xf7 NuttX/nuttx/libs/libc/libc.a(lib_errno.o)
 .debug_abbrev  0x000000000000daf4      0x1c5 NuttX/nuttx/libs/libc/libc.a(lib_stream.o)
 .debug_abbrev  0x000000000000dcb9      0x169 NuttX/nuttx/libs/libc/libc.a(lib_filesem.o)
 .debug_abbrev  0x000000000000de22       0x91 NuttX/nuttx/libs/libc/libc.a(sq_addlast.o)
 .debug_abbrev  0x000000000000deb3       0xd2 NuttX/nuttx/libs/libc/libc.a(sq_rem.o)
 .debug_abbrev  0x000000000000df85       0xaa NuttX/nuttx/libs/libc/libc.a(sq_remfirst.o)
 .debug_abbrev  0x000000000000e02f       0xaa NuttX/nuttx/libs/libc/libc.a(sq_remafter.o)
 .debug_abbrev  0x000000000000e0d9       0x91 NuttX/nuttx/libs/libc/libc.a(dq_addlast.o)
 .debug_abbrev  0x000000000000e16a       0x91 NuttX/nuttx/libs/libc/libc.a(dq_addfirst.o)
 .debug_abbrev  0x000000000000e1fb       0xb6 NuttX/nuttx/libs/libc/libc.a(dq_rem.o)
 .debug_abbrev  0x000000000000e2b1      0x135 NuttX/nuttx/libs/libc/libc.a(task_startup.o)
 .debug_abbrev  0x000000000000e3e6      0x18d NuttX/nuttx/libs/libc/libc.a(sem_init.o)
 .debug_abbrev  0x000000000000e573      0x125 NuttX/nuttx/libs/libc/libc.a(sig_addset.o)
 .debug_abbrev  0x000000000000e698      0x125 NuttX/nuttx/libs/libc/libc.a(sig_delset.o)
 .debug_abbrev  0x000000000000e7bd       0xa8 NuttX/nuttx/libs/libc/libc.a(sig_emptyset.o)
 .debug_abbrev  0x000000000000e865      0x146 NuttX/nuttx/libs/libc/libc.a(sig_ismember.o)
 .debug_abbrev  0x000000000000e9ab      0x127 NuttX/nuttx/libs/libc/libc.a(lib_printf.o)
 .debug_abbrev  0x000000000000ead2      0x178 NuttX/nuttx/libs/libc/libc.a(lib_libflushall.o)
 .debug_abbrev  0x000000000000ec4a      0x180 NuttX/nuttx/libs/libc/libc.a(lib_libfflush.o)
 .debug_abbrev  0x000000000000edca      0x1eb NuttX/nuttx/libs/libc/libc.a(lib_vfprintf.o)
 .debug_abbrev  0x000000000000efb5      0x1de NuttX/nuttx/libs/libc/libc.a(lib_stdoutstream.o)
 .debug_abbrev  0x000000000000f193       0x97 NuttX/nuttx/libs/libc/libc.a(lib_memset.o)
 .debug_abbrev  0x000000000000f22a       0x94 NuttX/nuttx/libs/libc/libc.a(lib_strcpy.o)
 .debug_abbrev  0x000000000000f2be       0x8f NuttX/nuttx/libs/libc/libc.a(lib_strlen.o)
 .debug_abbrev  0x000000000000f34d       0xa3 NuttX/nuttx/libs/libc/libc.a(lib_strncpy.o)
 .debug_abbrev  0x000000000000f3f0       0xd4 NuttX/nuttx/libs/libc/libc.a(lib_cfspeed.o)
 .debug_abbrev  0x000000000000f4c4      0x14a NuttX/nuttx/libs/libc/libc.a(tls_getinfo.o)
 .debug_abbrev  0x000000000000f60e      0x137 NuttX/nuttx/libs/libc/libc.a(lib_streamsem.o)
 .debug_abbrev  0x000000000000f745      0x108 NuttX/nuttx/libs/libc/libc.a(lib_libnoflush.o)
 .debug_abbrev  0x000000000000f84d      0x2c0 NuttX/nuttx/libs/libc/libc.a(lib_libvsprintf.o)
 .debug_abbrev  0x000000000000fb0d       0xa8 NuttX/nuttx/libs/libc/libc.a(lib_ultoa_invert.o)
 .debug_abbrev  0x000000000000fbb5      0x258 NuttX/nuttx/libs/libc/libc.a(lib_dtoa_engine.o)
 .debug_abbrev  0x000000000000fe0d       0x5d NuttX/nuttx/libs/libc/libc.a(lib_dtoa_data.o)
 .debug_abbrev  0x000000000000fe6a      0x15d NuttX/nuttx/libs/libc/libc.a(lib_fputc.o)
 .debug_abbrev  0x000000000000ffc7       0xa3 NuttX/nuttx/libs/libc/libc.a(lib_strnlen.o)
 .debug_abbrev  0x000000000001006a      0x1d0 NuttX/nuttx/libs/libc/libc.a(lib_libfwrite.o)
 .debug_abbrev  0x000000000001023a      0x184 NuttX/nuttx/libs/libc/libc.a(lib_rdflush.o)
 .debug_abbrev  0x00000000000103be      0x15c NuttX/nuttx/libs/libc/libc.a(lib_fseek.o)
 .debug_abbrev  0x000000000001051a      0x13f NuttX/nuttx/libs/libc/libc.a(lib_wrflush.o)
 .debug_abbrev  0x0000000000010659      0x419 platforms/nuttx/src/bootloader/common/libbootloader.a(bl.c.obj)
 .debug_abbrev  0x0000000000010a72      0x177 platforms/nuttx/src/bootloader/common/lib/libbootloader_lib.a(cdcacm.c.obj)
 .debug_abbrev  0x0000000000010be9      0x1c3 platforms/nuttx/src/bootloader/common/lib/libbootloader_lib.a(uart.c.obj)
 .debug_abbrev  0x0000000000010dac      0x1db NuttX/nuttx/boards/libboards.a(boardctl.o)
 .debug_abbrev  0x0000000000010f87      0x4e1 NuttX/nuttx/drivers/libdrivers.a(serial.o)
 .debug_abbrev  0x0000000000011468      0x207 NuttX/nuttx/drivers/libdrivers.a(serial_io.o)
 .debug_abbrev  0x000000000001166f      0x100 NuttX/nuttx/drivers/libdrivers.a(syslog_flush.o)
 .debug_abbrev  0x000000000001176f      0x104 NuttX/nuttx/drivers/libdrivers.a(syslog_initialize.o)
 .debug_abbrev  0x0000000000011873      0x577 NuttX/nuttx/drivers/libdrivers.a(cdcacm.o)
 .debug_abbrev  0x0000000000011dea      0x2c2 NuttX/nuttx/drivers/libdrivers.a(cdcacm_desc.o)
 .debug_abbrev  0x00000000000120ac      0x265 NuttX/nuttx/drivers/libdrivers.a(dev_null.o)
 .debug_abbrev  0x0000000000012311      0x1e2 NuttX/nuttx/drivers/libdrivers.a(syslog_channel.o)
 .debug_abbrev  0x00000000000124f3      0x14e NuttX/nuttx/fs/libfs.a(fs_initialize.o)
 .debug_abbrev  0x0000000000012641      0x3e4 NuttX/nuttx/fs/libfs.a(fs_files.o)
 .debug_abbrev  0x0000000000012a25      0x217 NuttX/nuttx/fs/libfs.a(fs_inode.o)
 .debug_abbrev  0x0000000000012c3c      0x2f9 NuttX/nuttx/fs/libfs.a(fs_inodereserve.o)
 .debug_abbrev  0x0000000000012f35      0x288 NuttX/nuttx/fs/libfs.a(fs_inodesearch.o)
 .debug_abbrev  0x00000000000131bd      0x1c8 NuttX/nuttx/fs/libfs.a(fs_close.o)
 .debug_abbrev  0x0000000000013385      0x1e3 NuttX/nuttx/fs/libfs.a(fs_dup2.o)
 .debug_abbrev  0x0000000000013568      0x203 NuttX/nuttx/fs/libfs.a(fs_lseek.o)
 .debug_abbrev  0x000000000001376b      0x2da NuttX/nuttx/fs/libfs.a(fs_open.o)
 .debug_abbrev  0x0000000000013a45      0x214 NuttX/nuttx/fs/libfs.a(fs_read.o)
 .debug_abbrev  0x0000000000013c59      0x203 NuttX/nuttx/fs/libfs.a(fs_write.o)
 .debug_abbrev  0x0000000000013e5c      0x309 NuttX/nuttx/fs/libfs.a(fs_fdopen.o)
 .debug_abbrev  0x0000000000014165      0x1d7 NuttX/nuttx/fs/libfs.a(fs_registerdriver.o)
 .debug_abbrev  0x000000000001433c      0x1a1 NuttX/nuttx/fs/libfs.a(fs_unregisterdriver.o)
 .debug_abbrev  0x00000000000144dd      0x19a NuttX/nuttx/fs/libfs.a(fs_inodeaddref.o)
 .debug_abbrev  0x0000000000014677      0x1ad NuttX/nuttx/fs/libfs.a(fs_inodefind.o)
 .debug_abbrev  0x0000000000014824      0x1d5 NuttX/nuttx/fs/libfs.a(fs_inoderelease.o)
 .debug_abbrev  0x00000000000149f9      0x1eb NuttX/nuttx/fs/libfs.a(fs_inoderemove.o)
 .debug_abbrev  0x0000000000014be4      0x179 NuttX/nuttx/fs/libfs.a(fs_inodefree.o)
 .debug_abbrev  0x0000000000014d5d      0x182 NuttX/nuttx/sched/libsched.a(clock_initialize.o)
 .debug_abbrev  0x0000000000014edf      0x1c8 NuttX/nuttx/sched/libsched.a(sched_getfiles.o)
 .debug_abbrev  0x00000000000150a7      0x245 NuttX/nuttx/sched/libsched.a(sched_addreadytorun.o)
 .debug_abbrev  0x00000000000152ec      0x22f NuttX/nuttx/sched/libsched.a(sched_removereadytorun.o)
 .debug_abbrev  0x000000000001551b      0x209 NuttX/nuttx/sched/libsched.a(sched_mergepending.o)
 .debug_abbrev  0x0000000000015724      0x1c8 NuttX/nuttx/sched/libsched.a(sched_getstreams.o)
 .debug_abbrev  0x00000000000158ec      0x1e4 NuttX/nuttx/sched/libsched.a(sched_idletask.o)
 .debug_abbrev  0x0000000000015ad0      0x1b2 NuttX/nuttx/sched/libsched.a(sched_self.o)
 .debug_abbrev  0x0000000000015c82      0x233 NuttX/nuttx/sched/libsched.a(sched_get_stackinfo.o)
 .debug_abbrev  0x0000000000015eb5      0x3a9 NuttX/nuttx/sched/libsched.a(sem_wait.o)
 .debug_abbrev  0x000000000001625e      0x353 NuttX/nuttx/sched/libsched.a(sem_trywait.o)
 .debug_abbrev  0x00000000000165b1      0x371 NuttX/nuttx/sched/libsched.a(sem_post.o)
 .debug_abbrev  0x0000000000016922      0x239 NuttX/nuttx/sched/libsched.a(sem_reset.o)
 .debug_abbrev  0x0000000000016b5b      0x28e NuttX/nuttx/sched/libsched.a(sig_kill.o)
 .debug_abbrev  0x0000000000016de9       0xf6 NuttX/nuttx/sched/libsched.a(sig_usleep.o)
 .debug_abbrev  0x0000000000016edf      0x24f NuttX/nuttx/sched/libsched.a(task_exit.o)
 .debug_abbrev  0x000000000001712e      0x1e4 NuttX/nuttx/sched/libsched.a(task_getpid.o)
 .debug_abbrev  0x0000000000017312      0x375 NuttX/nuttx/sched/libsched.a(task_terminate.o)
 .debug_abbrev  0x0000000000017687      0x39e NuttX/nuttx/sched/libsched.a(wd_start.o)
 .debug_abbrev  0x0000000000017a25      0x31e NuttX/nuttx/sched/libsched.a(sig_nanosleep.o)
 .debug_abbrev  0x0000000000017d43      0x43a NuttX/nuttx/sched/libsched.a(sig_timedwait.o)
 .debug_abbrev  0x000000000001817d      0x181 NuttX/nuttx/arch/arm/src/libarch.a(stm32_timerisr.o)
 .debug_abbrev  0x00000000000182fe       0xcb NuttX/nuttx/mm/libmm.a(umm_realloc.o)
 .debug_abbrev  0x00000000000183c9      0x17f NuttX/nuttx/mm/libmm.a(mm_realloc.o)
 .debug_abbrev  0x0000000000018548      0x10b NuttX/nuttx/libs/libc/libc.a(lib_umask.o)
 .debug_abbrev  0x0000000000018653       0x91 NuttX/nuttx/libs/libc/libc.a(sq_addfirst.o)
 .debug_abbrev  0x00000000000186e4       0xb5 NuttX/nuttx/libs/libc/libc.a(sq_addafter.o)
 .debug_abbrev  0x0000000000018799       0xf5 NuttX/nuttx/libs/libc/libc.a(clock_ticks2time.o)
 .debug_abbrev  0x000000000001888e       0xf0 NuttX/nuttx/libs/libc/libc.a(clock_time2ticks.o)
 .debug_abbrev  0x000000000001897e      0x163 NuttX/nuttx/libs/libc/libc.a(sem_getvalue.o)
 .debug_abbrev  0x0000000000018ae1      0x152 NuttX/nuttx/libs/libc/libc.a(sem_setprotocol.o)
 .debug_abbrev  0x0000000000018c33      0x126 NuttX/nuttx/libs/libc/libc.a(lib_asprintf.o)
 .debug_abbrev  0x0000000000018d59      0x1da NuttX/nuttx/libs/libc/libc.a(lib_snprintf.o)
 .debug_abbrev  0x0000000000018f33      0x1c8 NuttX/nuttx/libs/libc/libc.a(lib_vasprintf.o)
 .debug_abbrev  0x00000000000190fb      0x134 NuttX/nuttx/libs/libc/libc.a(lib_memoutstream.o)
 .debug_abbrev  0x000000000001922f      0x109 NuttX/nuttx/libs/libc/libc.a(lib_nulloutstream.o)
 .debug_abbrev  0x0000000000019338       0x99 NuttX/nuttx/libs/libc/libc.a(lib_atol.o)
 .debug_abbrev  0x00000000000193d1      0x105 NuttX/nuttx/libs/libc/libc.a(lib_strtol.o)
 .debug_abbrev  0x00000000000194d6      0x10d NuttX/nuttx/libs/libc/libc.a(lib_strtoul.o)
 .debug_abbrev  0x00000000000195e3       0xdc NuttX/nuttx/libs/libc/libc.a(lib_checkbase.o)
 .debug_abbrev  0x00000000000196bf       0xd0 NuttX/nuttx/libs/libc/libc.a(lib_isbasedigit.o)
 .debug_abbrev  0x000000000001978f       0xce NuttX/nuttx/libs/libc/libc.a(lib_skipspace.o)
 .debug_abbrev  0x000000000001985d       0xf4 NuttX/nuttx/libs/libc/libc.a(lib_strdup.o)
 .debug_abbrev  0x0000000000019951       0xbe NuttX/nuttx/libs/libc/libc.a(lib_strtok.o)
 .debug_abbrev  0x0000000000019a0f       0xcb NuttX/nuttx/libs/libc/libc.a(lib_strtokr.o)
 .debug_abbrev  0x0000000000019ada       0x7d NuttX/nuttx/libs/libc/libc.a(lib_strchr.o)
 .debug_abbrev  0x0000000000019b57       0xe9 NuttX/nuttx/libs/libc/libc.a(lib_tcgetattr.o)
 .debug_abbrev  0x0000000000019c40      0x110 NuttX/nuttx/libs/libc/libc.a(lib_tcsetattr.o)
 .debug_abbrev  0x0000000000019d50       0xf7 NuttX/nuttx/libs/libc/libc.a(task_getinfo.o)
 .debug_abbrev  0x0000000000019e47       0x51 NuttX/nuttx/libs/libc/libc.a(lib_isspace.o)
 .debug_abbrev  0x0000000000019e98       0x89 NuttX/nuttx/libs/libc/libc.a(lib_tcflush.o)
 .debug_abbrev  0x0000000000019f21       0x98 NuttX/nuttx/drivers/libdrivers.a(tcdrain.o)
 .debug_abbrev  0x0000000000019fb9      0x314 NuttX/nuttx/fs/libfs.a(fs_ioctl.o)
 .debug_abbrev  0x000000000001a2cd      0x1c9 NuttX/nuttx/fs/libfs.a(fs_inodegetpath.o)
 .debug_abbrev  0x000000000001a496      0x370 NuttX/nuttx/fs/libfs.a(fs_fcntl.o)
 .debug_abbrev  0x000000000001a806      0x212 NuttX/nuttx/fs/libfs.a(fs_dup.o)
 .debug_abbrev  0x000000000001aa18      0x1f1 NuttX/nuttx/sched/libsched.a(sched_processtimer.o)
 .debug_abbrev  0x000000000001ac09       0xbe NuttX/nuttx/libs/libc/libc.a(lib_strcat.o)
 .debug_abbrev  0x000000000001acc7      0x396 platforms/nuttx/src/bootloader/stm/stm32h7/arch_bootloader/libarch_bootloader.a(main.c.obj)
 .debug_abbrev  0x000000000001b05d       0xd0 platforms/nuttx/src/bootloader/stm/stm32h7/arch_bootloader/libarch_bootloader.a(systick.c.obj)
 .debug_abbrev  0x000000000001b12d      0x262 platforms/nuttx/src/px4/stm/stm32h7/board_reset/libarch_board_reset.a(board_reset.cpp.obj)
 .debug_abbrev  0x000000000001b38f       0x84 NuttX/nuttx/arch/arm/src/libarch.a(arm_systemreset.o)
 .debug_abbrev  0x000000000001b413      0x3c7 NuttX/nuttx/arch/arm/src/libarch.a(stm32_flash.o)
 .debug_abbrev  0x000000000001b7da      0x24e platforms/nuttx/src/bootloader/common/lib/libbootloader_lib.a(flash_cache.c.obj)

.debug_info     0x0000000000000000    0x88f90
 *(.debug_info)
 .debug_info    0x0000000000000000      0x166 NuttX/nuttx/arch/arm/src/libarch.a(arm_vectors.o)
 .debug_info    0x0000000000000166       0x26 NuttX/nuttx/arch/arm/src/libarch.a(arm_exception.o)
 .debug_info    0x000000000000018c      0x352 NuttX/nuttx/arch/arm/src/libarch.a(stm32_start.o)
 .debug_info    0x00000000000004de      0x500 NuttX/nuttx/arch/arm/src/libarch.a(stm32_rcc.o)
 .debug_info    0x00000000000009de      0x1de NuttX/nuttx/arch/arm/src/libarch.a(stm32_lowputc.o)
 .debug_info    0x0000000000000bbc      0xbe1 NuttX/nuttx/arch/arm/src/libarch.a(stm32_pwr.o)
 .debug_info    0x000000000000179d      0x22f NuttX/nuttx/arch/arm/src/libarch.a(arm_doirq.o)
 .debug_info    0x00000000000019cc      0x276 NuttX/nuttx/arch/arm/src/libarch.a(arm_modifyreg32.o)
 .debug_info    0x0000000000001c42       0xfc NuttX/nuttx/arch/arm/src/libarch.a(arm_udelay.o)
 .debug_info    0x0000000000001d3e      0x167 NuttX/nuttx/arch/arm/src/libarch.a(arm_cache.o)
 .debug_info    0x0000000000001ea5      0x4b5 NuttX/nuttx/arch/arm/src/libarch.a(stm32_irq.o)
 .debug_info    0x000000000000235a      0x305 NuttX/nuttx/arch/arm/src/libarch.a(arm_hardfault.o)
 .debug_info    0x000000000000265f      0x30e NuttX/nuttx/arch/arm/src/libarch.a(arm_svcall.o)
 .debug_info    0x000000000000296d       0x26 NuttX/nuttx/libs/libc/libc.a(arch_memcpy.o)
 .debug_info    0x0000000000002993      0x144 NuttX/nuttx/libs/libc/libc.a(lib_assert.o)
 .debug_info    0x0000000000002ad7       0xac NuttX/nuttx/libs/libc/libc.a(lib_abort.o)
 .debug_info    0x0000000000002b83      0x309 boards/hkust/nxt/src/libdrivers_board.a(bootloader_main.c.obj)
 .debug_info    0x0000000000002e8c      0x607 boards/hkust/nxt/src/libdrivers_board.a(usb.c.obj)
 .debug_info    0x0000000000003493     0x177b NuttX/nuttx/sched/libsched.a(nx_start.o)
 .debug_info    0x0000000000004c0e      0x29d NuttX/nuttx/sched/libsched.a(nx_bringup.o)
 .debug_info    0x0000000000004eab      0x36a NuttX/nuttx/sched/libsched.a(irq_attach.o)
 .debug_info    0x0000000000005215     0x1185 NuttX/nuttx/sched/libsched.a(irq_dispatch.o)
 .debug_info    0x000000000000639a      0x2b3 NuttX/nuttx/sched/libsched.a(irq_unexpectedisr.o)
 .debug_info    0x000000000000664d     0x10bf NuttX/nuttx/sched/libsched.a(sched_lock.o)
 .debug_info    0x000000000000770c     0x12cd NuttX/nuttx/sched/libsched.a(sched_unlock.o)
 .debug_info    0x00000000000089d9     0x1543 NuttX/nuttx/sched/libsched.a(task_create.o)
 .debug_info    0x0000000000009f1c     0x14d9 NuttX/nuttx/sched/libsched.a(task_init.o)
 .debug_info    0x000000000000b3f5     0x1874 NuttX/nuttx/sched/libsched.a(task_setup.o)
 .debug_info    0x000000000000cc69     0x108f NuttX/nuttx/sched/libsched.a(task_activate.o)
 .debug_info    0x000000000000dcf8     0x117a NuttX/nuttx/sched/libsched.a(task_start.o)
 .debug_info    0x000000000000ee72     0x114f NuttX/nuttx/sched/libsched.a(exit.o)
 .debug_info    0x000000000000ffc1     0x1323 NuttX/nuttx/sched/libsched.a(group_create.o)
 .debug_info    0x00000000000112e4     0x1077 NuttX/nuttx/sched/libsched.a(group_leave.o)
 .debug_info    0x000000000001235b      0xf85 NuttX/nuttx/sched/libsched.a(group_setupidlefiles.o)
 .debug_info    0x00000000000132e0     0x1107 NuttX/nuttx/sched/libsched.a(group_setuptaskfiles.o)
 .debug_info    0x00000000000143e7      0x174 NuttX/nuttx/sched/libsched.a(irq_initialize.o)
 .debug_info    0x000000000001455b     0x131b NuttX/nuttx/sched/libsched.a(sched_releasetcb.o)
 .debug_info    0x0000000000015876      0x1b8 NuttX/nuttx/sched/libsched.a(sem_destroy.o)
 .debug_info    0x0000000000015a2e     0x13a5 NuttX/nuttx/sched/libsched.a(sig_procmask.o)
 .debug_info    0x0000000000016dd3     0x1271 NuttX/nuttx/sched/libsched.a(sig_unmaskpendingsignal.o)
 .debug_info    0x0000000000018044     0x1188 NuttX/nuttx/sched/libsched.a(sig_removependingsignal.o)
 .debug_info    0x00000000000191cc      0x4bc NuttX/nuttx/sched/libsched.a(sig_releasependingsignal.o)
 .debug_info    0x0000000000019688      0x203 NuttX/nuttx/sched/libsched.a(sig_lowest.o)
 .debug_info    0x000000000001988b     0x120f NuttX/nuttx/sched/libsched.a(sig_cleanup.o)
 .debug_info    0x000000000001aa9a     0x1d97 NuttX/nuttx/sched/libsched.a(sig_dispatch.o)
 .debug_info    0x000000000001c831     0x1351 NuttX/nuttx/sched/libsched.a(sig_deliver.o)
 .debug_info    0x000000000001db82     0x1874 NuttX/nuttx/sched/libsched.a(sig_default.o)
 .debug_info    0x000000000001f3f6     0x11c1 NuttX/nuttx/sched/libsched.a(task_exithook.o)
 .debug_info    0x00000000000205b7     0x1134 NuttX/nuttx/sched/libsched.a(task_recover.o)
 .debug_info    0x00000000000216eb     0x132c NuttX/nuttx/sched/libsched.a(task_cancelpt.o)
 .debug_info    0x0000000000022a17      0xf1b NuttX/nuttx/sched/libsched.a(wd_recover.o)
 .debug_info    0x0000000000023932      0xfe3 NuttX/nuttx/sched/libsched.a(group_setupstreams.o)
 .debug_info    0x0000000000024915     0x122c NuttX/nuttx/sched/libsched.a(sched_gettcb.o)
 .debug_info    0x0000000000025b41     0x12b3 NuttX/nuttx/sched/libsched.a(sched_suspend.o)
 .debug_info    0x0000000000026df4     0x1270 NuttX/nuttx/sched/libsched.a(sched_continue.o)
 .debug_info    0x0000000000028064     0x10c7 NuttX/nuttx/sched/libsched.a(sem_recover.o)
 .debug_info    0x000000000002912b     0x1107 NuttX/nuttx/sched/libsched.a(sem_waitirq.o)
 .debug_info    0x000000000002a232      0x7ef NuttX/nuttx/sched/libsched.a(sig_initialize.o)
 .debug_info    0x000000000002aa21     0x14e5 NuttX/nuttx/sched/libsched.a(sig_action.o)
 .debug_info    0x000000000002bf06     0x1365 NuttX/nuttx/sched/libsched.a(sig_pending.o)
 .debug_info    0x000000000002d26b      0xd9a NuttX/nuttx/sched/libsched.a(sig_findaction.o)
 .debug_info    0x000000000002e005      0x4cc NuttX/nuttx/sched/libsched.a(sig_allocpendingsigaction.o)
 .debug_info    0x000000000002e4d1      0x51a NuttX/nuttx/sched/libsched.a(sig_releasependingsigaction.o)
 .debug_info    0x000000000002e9eb     0x1298 NuttX/nuttx/sched/libsched.a(wd_cancel.o)
 .debug_info    0x000000000002fc83     0x1142 NuttX/nuttx/sched/libsched.a(sched_addblocked.o)
 .debug_info    0x0000000000030dc5     0x110e NuttX/nuttx/sched/libsched.a(sched_removeblocked.o)
 .debug_info    0x0000000000031ed3      0x13b NuttX/nuttx/sched/libsched.a(wd_initialize.o)
 .debug_info    0x000000000003200e     0x10f1 NuttX/nuttx/sched/libsched.a(sched_addprioritized.o)
 .debug_info    0x00000000000330ff      0x34b NuttX/apps/libapps.a(cdcacm_main.c.src.NxtPX4.PX4-Autopilot.platforms.nuttx.NuttX.apps.system.cdcacm.o)
 .debug_info    0x000000000003344a      0x1ff NuttX/nuttx/arch/arm/src/libarch.a(stm32_allocateheap.o)
 .debug_info    0x0000000000033649      0x511 NuttX/nuttx/arch/arm/src/libarch.a(stm32_gpio.o)
 .debug_info    0x0000000000033b5a     0x1337 NuttX/nuttx/arch/arm/src/libarch.a(arm_assert.o)
 .debug_info    0x0000000000034e91     0x1276 NuttX/nuttx/arch/arm/src/libarch.a(arm_blocktask.o)
 .debug_info    0x0000000000036107      0x19b NuttX/nuttx/arch/arm/src/libarch.a(arm_copyfullstate.o)
 .debug_info    0x00000000000362a2     0x1151 NuttX/nuttx/arch/arm/src/libarch.a(arm_createstack.o)
 .debug_info    0x00000000000373f3     0x12ba NuttX/nuttx/arch/arm/src/libarch.a(arm_exit.o)
 .debug_info    0x00000000000386ad      0x337 NuttX/nuttx/arch/arm/src/libarch.a(arm_initialize.o)
 .debug_info    0x00000000000389e4      0xfef NuttX/nuttx/arch/arm/src/libarch.a(arm_initialstate.o)
 .debug_info    0x00000000000399d3      0x1a3 NuttX/nuttx/arch/arm/src/libarch.a(arm_interruptcontext.o)
 .debug_info    0x0000000000039b76     0x119b NuttX/nuttx/arch/arm/src/libarch.a(arm_releasepending.o)
 .debug_info    0x000000000003ad11      0xfda NuttX/nuttx/arch/arm/src/libarch.a(arm_releasestack.o)
 .debug_info    0x000000000003bceb     0x11fe NuttX/nuttx/arch/arm/src/libarch.a(arm_schedulesigaction.o)
 .debug_info    0x000000000003cee9     0x133b NuttX/nuttx/arch/arm/src/libarch.a(arm_sigdeliver.o)
 .debug_info    0x000000000003e224      0xfe6 NuttX/nuttx/arch/arm/src/libarch.a(arm_stackframe.o)
 .debug_info    0x000000000003f20a     0x1264 NuttX/nuttx/arch/arm/src/libarch.a(arm_unblocktask.o)
 .debug_info    0x000000000004046e     0x111e NuttX/nuttx/arch/arm/src/libarch.a(arm_usestack.o)
 .debug_info    0x000000000004158c      0x189 NuttX/nuttx/arch/arm/src/libarch.a(arm_idle.o)
 .debug_info    0x0000000000041715     0x1455 NuttX/nuttx/arch/arm/src/libarch.a(arm_checkstack.o)
 .debug_info    0x0000000000042b6a       0x26 NuttX/nuttx/arch/arm/src/libarch.a(arm_fullcontextrestore.o)
 .debug_info    0x0000000000042b90       0x26 NuttX/nuttx/arch/arm/src/libarch.a(arm_switchcontext.o)
 .debug_info    0x0000000000042bb6     0x2718 NuttX/nuttx/arch/arm/src/libarch.a(stm32_serial.o)
 .debug_info    0x00000000000452ce     0x4198 NuttX/nuttx/arch/arm/src/libarch.a(stm32_otgdev.o)
 .debug_info    0x0000000000049466       0xf7 NuttX/nuttx/arch/arm/src/libarch.a(arm_mdelay.o)
 .debug_info    0x000000000004955d      0x153 NuttX/nuttx/mm/libmm.a(umm_initialize.o)
 .debug_info    0x00000000000496b0      0x117 NuttX/nuttx/mm/libmm.a(umm_free.o)
 .debug_info    0x00000000000497c7      0x133 NuttX/nuttx/mm/libmm.a(umm_malloc.o)
 .debug_info    0x00000000000498fa      0x14e NuttX/nuttx/mm/libmm.a(umm_memalign.o)
 .debug_info    0x0000000000049a48      0x133 NuttX/nuttx/mm/libmm.a(umm_zalloc.o)
 .debug_info    0x0000000000049b7b      0x460 NuttX/nuttx/mm/libmm.a(mm_initialize.o)
 .debug_info    0x0000000000049fdb      0x3d0 NuttX/nuttx/mm/libmm.a(mm_sem.o)
 .debug_info    0x000000000004a3ab      0x2e5 NuttX/nuttx/mm/libmm.a(mm_addfreechunk.o)
 .debug_info    0x000000000004a690      0x294 NuttX/nuttx/mm/libmm.a(mm_size2ndx.o)
 .debug_info    0x000000000004a924      0x559 NuttX/nuttx/mm/libmm.a(mm_free.o)
 .debug_info    0x000000000004ae7d      0x5e5 NuttX/nuttx/mm/libmm.a(mm_malloc.o)
 .debug_info    0x000000000004b462      0x42c NuttX/nuttx/mm/libmm.a(mm_memalign.o)
 .debug_info    0x000000000004b88e      0x151 NuttX/nuttx/mm/libmm.a(mm_zalloc.o)
 .debug_info    0x000000000004b9df       0xd0 NuttX/nuttx/mm/libmm.a(umm_globals.o)
 .debug_info    0x000000000004baaf      0x321 NuttX/nuttx/mm/libmm.a(mm_shrinkchunk.o)
 .debug_info    0x000000000004bdd0      0x2bf NuttX/nuttx/libs/libc/libc.a(lib_errno.o)
 .debug_info    0x000000000004c08f      0xd0d NuttX/nuttx/libs/libc/libc.a(lib_stream.o)
 .debug_info    0x000000000004cd9c      0x36c NuttX/nuttx/libs/libc/libc.a(lib_filesem.o)
 .debug_info    0x000000000004d108      0x113 NuttX/nuttx/libs/libc/libc.a(sq_addlast.o)
 .debug_info    0x000000000004d21b      0x152 NuttX/nuttx/libs/libc/libc.a(sq_rem.o)
 .debug_info    0x000000000004d36d      0x123 NuttX/nuttx/libs/libc/libc.a(sq_remfirst.o)
 .debug_info    0x000000000004d490      0x137 NuttX/nuttx/libs/libc/libc.a(sq_remafter.o)
 .debug_info    0x000000000004d5c7      0x120 NuttX/nuttx/libs/libc/libc.a(dq_addlast.o)
 .debug_info    0x000000000004d6e7      0x120 NuttX/nuttx/libs/libc/libc.a(dq_addfirst.o)
 .debug_info    0x000000000004d807      0x142 NuttX/nuttx/libs/libc/libc.a(dq_rem.o)
 .debug_info    0x000000000004d949      0x1fc NuttX/nuttx/libs/libc/libc.a(task_startup.o)
 .debug_info    0x000000000004db45      0x236 NuttX/nuttx/libs/libc/libc.a(sem_init.o)
 .debug_info    0x000000000004dd7b      0x186 NuttX/nuttx/libs/libc/libc.a(sig_addset.o)
 .debug_info    0x000000000004df01      0x186 NuttX/nuttx/libs/libc/libc.a(sig_delset.o)
 .debug_info    0x000000000004e087       0xe9 NuttX/nuttx/libs/libc/libc.a(sig_emptyset.o)
 .debug_info    0x000000000004e170      0x1a8 NuttX/nuttx/libs/libc/libc.a(sig_ismember.o)
 .debug_info    0x000000000004e318      0x173 NuttX/nuttx/libs/libc/libc.a(lib_printf.o)
 .debug_info    0x000000000004e48b      0x3a9 NuttX/nuttx/libs/libc/libc.a(lib_libflushall.o)
 .debug_info    0x000000000004e834      0x3ad NuttX/nuttx/libs/libc/libc.a(lib_libfflush.o)
 .debug_info    0x000000000004ebe1      0x463 NuttX/nuttx/libs/libc/libc.a(lib_vfprintf.o)
 .debug_info    0x000000000004f044      0x438 NuttX/nuttx/libs/libc/libc.a(lib_stdoutstream.o)
 .debug_info    0x000000000004f47c      0x195 NuttX/nuttx/libs/libc/libc.a(lib_memset.o)
 .debug_info    0x000000000004f611       0xe2 NuttX/nuttx/libs/libc/libc.a(lib_strcpy.o)
 .debug_info    0x000000000004f6f3       0xdd NuttX/nuttx/libs/libc/libc.a(lib_strlen.o)
 .debug_info    0x000000000004f7d0      0x120 NuttX/nuttx/libs/libc/libc.a(lib_strncpy.o)
 .debug_info    0x000000000004f8f0      0x208 NuttX/nuttx/libs/libc/libc.a(lib_cfspeed.o)
 .debug_info    0x000000000004faf8      0x32d NuttX/nuttx/libs/libc/libc.a(tls_getinfo.o)
 .debug_info    0x000000000004fe25      0x34c NuttX/nuttx/libs/libc/libc.a(lib_streamsem.o)
 .debug_info    0x0000000000050171      0x192 NuttX/nuttx/libs/libc/libc.a(lib_libnoflush.o)
 .debug_info    0x0000000000050303      0x96c NuttX/nuttx/libs/libc/libc.a(lib_libvsprintf.o)
 .debug_info    0x0000000000050c6f       0xc4 NuttX/nuttx/libs/libc/libc.a(lib_ultoa_invert.o)
 .debug_info    0x0000000000050d33      0xb02 NuttX/nuttx/libs/libc/libc.a(lib_dtoa_engine.o)
 .debug_info    0x0000000000051835       0xd5 NuttX/nuttx/libs/libc/libc.a(lib_dtoa_data.o)
 .debug_info    0x000000000005190a      0x30e NuttX/nuttx/libs/libc/libc.a(lib_fputc.o)
 .debug_info    0x0000000000051c18       0xf1 NuttX/nuttx/libs/libc/libc.a(lib_strnlen.o)
 .debug_info    0x0000000000051d09      0x485 NuttX/nuttx/libs/libc/libc.a(lib_libfwrite.o)
 .debug_info    0x000000000005218e      0x371 NuttX/nuttx/libs/libc/libc.a(lib_rdflush.o)
 .debug_info    0x00000000000524ff      0x357 NuttX/nuttx/libs/libc/libc.a(lib_fseek.o)
 .debug_info    0x0000000000052856      0x2ca NuttX/nuttx/libs/libc/libc.a(lib_wrflush.o)
 .debug_info    0x0000000000052b20     0x12cd platforms/nuttx/src/bootloader/common/libbootloader.a(bl.c.obj)
 .debug_info    0x0000000000053ded      0x312 platforms/nuttx/src/bootloader/common/lib/libbootloader_lib.a(cdcacm.c.obj)
 .debug_info    0x00000000000540ff      0x475 platforms/nuttx/src/bootloader/common/lib/libbootloader_lib.a(uart.c.obj)
 .debug_info    0x0000000000054574      0x2fa NuttX/nuttx/boards/libboards.a(boardctl.o)
 .debug_info    0x000000000005486e     0x28d8 NuttX/nuttx/drivers/libdrivers.a(serial.o)
 .debug_info    0x0000000000057146      0xd82 NuttX/nuttx/drivers/libdrivers.a(serial_io.o)
 .debug_info    0x0000000000057ec8      0x219 NuttX/nuttx/drivers/libdrivers.a(syslog_flush.o)
 .debug_info    0x00000000000580e1      0x256 NuttX/nuttx/drivers/libdrivers.a(syslog_initialize.o)
 .debug_info    0x0000000000058337     0x3b64 NuttX/nuttx/drivers/libdrivers.a(cdcacm.o)
 .debug_info    0x000000000005be9b      0x915 NuttX/nuttx/drivers/libdrivers.a(cdcacm_desc.o)
 .debug_info    0x000000000005c7b0      0xacf NuttX/nuttx/drivers/libdrivers.a(dev_null.o)
 .debug_info    0x000000000005d27f      0x452 NuttX/nuttx/drivers/libdrivers.a(syslog_channel.o)
 .debug_info    0x000000000005d6d1      0x8a0 NuttX/nuttx/fs/libfs.a(fs_initialize.o)
 .debug_info    0x000000000005df71     0x11a4 NuttX/nuttx/fs/libfs.a(fs_files.o)
 .debug_info    0x000000000005f115      0xa10 NuttX/nuttx/fs/libfs.a(fs_inode.o)
 .debug_info    0x000000000005fb25      0xca9 NuttX/nuttx/fs/libfs.a(fs_inodereserve.o)
 .debug_info    0x00000000000607ce      0xb5b NuttX/nuttx/fs/libfs.a(fs_inodesearch.o)
 .debug_info    0x0000000000061329      0x916 NuttX/nuttx/fs/libfs.a(fs_close.o)
 .debug_info    0x0000000000061c3f      0x98e NuttX/nuttx/fs/libfs.a(fs_dup2.o)
 .debug_info    0x00000000000625cd      0xa87 NuttX/nuttx/fs/libfs.a(fs_lseek.o)
 .debug_info    0x0000000000063054      0xeda NuttX/nuttx/fs/libfs.a(fs_open.o)
 .debug_info    0x0000000000063f2e      0xa7f NuttX/nuttx/fs/libfs.a(fs_read.o)
 .debug_info    0x00000000000649ad      0xa72 NuttX/nuttx/fs/libfs.a(fs_write.o)
 .debug_info    0x000000000006541f     0x1188 NuttX/nuttx/fs/libfs.a(fs_fdopen.o)
 .debug_info    0x00000000000665a7      0x975 NuttX/nuttx/fs/libfs.a(fs_registerdriver.o)
 .debug_info    0x0000000000066f1c      0x902 NuttX/nuttx/fs/libfs.a(fs_unregisterdriver.o)
 .debug_info    0x000000000006781e      0x8fb NuttX/nuttx/fs/libfs.a(fs_inodeaddref.o)
 .debug_info    0x0000000000068119      0x991 NuttX/nuttx/fs/libfs.a(fs_inodefind.o)
 .debug_info    0x0000000000068aaa      0x922 NuttX/nuttx/fs/libfs.a(fs_inoderelease.o)
 .debug_info    0x00000000000693cc      0xa00 NuttX/nuttx/fs/libfs.a(fs_inoderemove.o)
 .debug_info    0x0000000000069dcc      0x8cd NuttX/nuttx/fs/libfs.a(fs_inodefree.o)
 .debug_info    0x000000000006a699      0x1d9 NuttX/nuttx/sched/libsched.a(clock_initialize.o)
 .debug_info    0x000000000006a872     0x10a8 NuttX/nuttx/sched/libsched.a(sched_getfiles.o)
 .debug_info    0x000000000006b91a     0x119e NuttX/nuttx/sched/libsched.a(sched_addreadytorun.o)
 .debug_info    0x000000000006cab8     0x1197 NuttX/nuttx/sched/libsched.a(sched_removereadytorun.o)
 .debug_info    0x000000000006dc4f     0x118b NuttX/nuttx/sched/libsched.a(sched_mergepending.o)
 .debug_info    0x000000000006edda     0x10a8 NuttX/nuttx/sched/libsched.a(sched_getstreams.o)
 .debug_info    0x000000000006fe82     0x10cd NuttX/nuttx/sched/libsched.a(sched_idletask.o)
 .debug_info    0x0000000000070f4f     0x1075 NuttX/nuttx/sched/libsched.a(sched_self.o)
 .debug_info    0x0000000000071fc4     0x113a NuttX/nuttx/sched/libsched.a(sched_get_stackinfo.o)
 .debug_info    0x00000000000730fe     0x1398 NuttX/nuttx/sched/libsched.a(sem_wait.o)
 .debug_info    0x0000000000074496     0x12b8 NuttX/nuttx/sched/libsched.a(sem_trywait.o)
 .debug_info    0x000000000007574e     0x1316 NuttX/nuttx/sched/libsched.a(sem_post.o)
 .debug_info    0x0000000000076a64      0x33a NuttX/nuttx/sched/libsched.a(sem_reset.o)
 .debug_info    0x0000000000076d9e     0x11f0 NuttX/nuttx/sched/libsched.a(sig_kill.o)
 .debug_info    0x0000000000077f8e      0x171 NuttX/nuttx/sched/libsched.a(sig_usleep.o)
 .debug_info    0x00000000000780ff     0x11b2 NuttX/nuttx/sched/libsched.a(task_exit.o)
 .debug_info    0x00000000000792b1     0x10d3 NuttX/nuttx/sched/libsched.a(task_getpid.o)
 .debug_info    0x000000000007a384     0x1369 NuttX/nuttx/sched/libsched.a(task_terminate.o)
 .debug_info    0x000000000007b6ed     0x13bc NuttX/nuttx/sched/libsched.a(wd_start.o)
 .debug_info    0x000000000007caa9      0x662 NuttX/nuttx/sched/libsched.a(sig_nanosleep.o)
 .debug_info    0x000000000007d10b     0x164d NuttX/nuttx/sched/libsched.a(sig_timedwait.o)
 .debug_info    0x000000000007e758      0x2e3 NuttX/nuttx/arch/arm/src/libarch.a(stm32_timerisr.o)
 .debug_info    0x000000000007ea3b      0x14e NuttX/nuttx/mm/libmm.a(umm_realloc.o)
 .debug_info    0x000000000007eb89      0x52a NuttX/nuttx/mm/libmm.a(mm_realloc.o)
 .debug_info    0x000000000007f0b3      0x2b5 NuttX/nuttx/libs/libc/libc.a(lib_umask.o)
 .debug_info    0x000000000007f368      0x113 NuttX/nuttx/libs/libc/libc.a(sq_addfirst.o)
 .debug_info    0x000000000007f47b      0x148 NuttX/nuttx/libs/libc/libc.a(sq_addafter.o)
 .debug_info    0x000000000007f5c3      0x16b NuttX/nuttx/libs/libc/libc.a(clock_ticks2time.o)
 .debug_info    0x000000000007f72e      0x19c NuttX/nuttx/libs/libc/libc.a(clock_time2ticks.o)
 .debug_info    0x000000000007f8ca      0x1d9 NuttX/nuttx/libs/libc/libc.a(sem_getvalue.o)
 .debug_info    0x000000000007faa3      0x1da NuttX/nuttx/libs/libc/libc.a(sem_setprotocol.o)
 .debug_info    0x000000000007fc7d      0x1a0 NuttX/nuttx/libs/libc/libc.a(lib_asprintf.o)
 .debug_info    0x000000000007fe1d      0x309 NuttX/nuttx/libs/libc/libc.a(lib_snprintf.o)
 .debug_info    0x0000000000080126      0x358 NuttX/nuttx/libs/libc/libc.a(lib_vasprintf.o)
 .debug_info    0x000000000008047e      0x233 NuttX/nuttx/libs/libc/libc.a(lib_memoutstream.o)
 .debug_info    0x00000000000806b1      0x19f NuttX/nuttx/libs/libc/libc.a(lib_nulloutstream.o)
 .debug_info    0x0000000000080850       0xd4 NuttX/nuttx/libs/libc/libc.a(lib_atol.o)
 .debug_info    0x0000000000080924      0x1f9 NuttX/nuttx/libs/libc/libc.a(lib_strtol.o)
 .debug_info    0x0000000000080b1d      0x225 NuttX/nuttx/libs/libc/libc.a(lib_strtoul.o)
 .debug_info    0x0000000000080d42      0x157 NuttX/nuttx/libs/libc/libc.a(lib_checkbase.o)
 .debug_info    0x0000000000080e99      0x14b NuttX/nuttx/libs/libc/libc.a(lib_isbasedigit.o)
 .debug_info    0x0000000000080fe4      0x132 NuttX/nuttx/libs/libc/libc.a(lib_skipspace.o)
 .debug_info    0x0000000000081116      0x178 NuttX/nuttx/libs/libc/libc.a(lib_strdup.o)
 .debug_info    0x000000000008128e      0x10d NuttX/nuttx/libs/libc/libc.a(lib_strtok.o)
 .debug_info    0x000000000008139b      0x140 NuttX/nuttx/libs/libc/libc.a(lib_strtokr.o)
 .debug_info    0x00000000000814db       0xc4 NuttX/nuttx/libs/libc/libc.a(lib_strchr.o)
 .debug_info    0x000000000008159f      0x177 NuttX/nuttx/libs/libc/libc.a(lib_tcgetattr.o)
 .debug_info    0x0000000000081716      0x1d7 NuttX/nuttx/libs/libc/libc.a(lib_tcsetattr.o)
 .debug_info    0x00000000000818ed      0x2b9 NuttX/nuttx/libs/libc/libc.a(task_getinfo.o)
 .debug_info    0x0000000000081ba6       0x5a NuttX/nuttx/libs/libc/libc.a(lib_isspace.o)
 .debug_info    0x0000000000081c00       0xe1 NuttX/nuttx/libs/libc/libc.a(lib_tcflush.o)
 .debug_info    0x0000000000081ce1       0xd7 NuttX/nuttx/drivers/libdrivers.a(tcdrain.o)
 .debug_info    0x0000000000081db8      0xcc3 NuttX/nuttx/fs/libfs.a(fs_ioctl.o)
 .debug_info    0x0000000000082a7b      0x93b NuttX/nuttx/fs/libfs.a(fs_inodegetpath.o)
 .debug_info    0x00000000000833b6      0xc4d NuttX/nuttx/fs/libfs.a(fs_fcntl.o)
 .debug_info    0x0000000000084003      0xa8f NuttX/nuttx/fs/libfs.a(fs_dup.o)
 .debug_info    0x0000000000084a92     0x1102 NuttX/nuttx/sched/libsched.a(sched_processtimer.o)
 .debug_info    0x0000000000085b94       0xfe NuttX/nuttx/libs/libc/libc.a(lib_strcat.o)
 .debug_info    0x0000000000085c92      0xf0a platforms/nuttx/src/bootloader/stm/stm32h7/arch_bootloader/libarch_bootloader.a(main.c.obj)
 .debug_info    0x0000000000086b9c      0x21a platforms/nuttx/src/bootloader/stm/stm32h7/arch_bootloader/libarch_bootloader.a(systick.c.obj)
 .debug_info    0x0000000000086db6      0x863 platforms/nuttx/src/px4/stm/stm32h7/board_reset/libarch_board_reset.a(board_reset.cpp.obj)
 .debug_info    0x0000000000087619       0xdd NuttX/nuttx/arch/arm/src/libarch.a(arm_systemreset.o)
 .debug_info    0x00000000000876f6     0x1426 NuttX/nuttx/arch/arm/src/libarch.a(stm32_flash.o)
 .debug_info    0x0000000000088b1c      0x474 platforms/nuttx/src/bootloader/common/lib/libbootloader_lib.a(flash_cache.c.obj)

.debug_line     0x0000000000000000    0x34466
 *(.debug_line)
 .debug_line    0x0000000000000000      0x12a NuttX/nuttx/arch/arm/src/libarch.a(arm_vectors.o)
 .debug_line    0x000000000000012a       0x7d NuttX/nuttx/arch/arm/src/libarch.a(arm_exception.o)
 .debug_line    0x00000000000001a7      0x383 NuttX/nuttx/arch/arm/src/libarch.a(stm32_start.o)
 .debug_line    0x000000000000052a      0x6ba NuttX/nuttx/arch/arm/src/libarch.a(stm32_rcc.o)
 .debug_line    0x0000000000000be4      0x20f NuttX/nuttx/arch/arm/src/libarch.a(stm32_lowputc.o)
 .debug_line    0x0000000000000df3      0x781 NuttX/nuttx/arch/arm/src/libarch.a(stm32_pwr.o)
 .debug_line    0x0000000000001574      0x27a NuttX/nuttx/arch/arm/src/libarch.a(arm_doirq.o)
 .debug_line    0x00000000000017ee      0x1c5 NuttX/nuttx/arch/arm/src/libarch.a(arm_modifyreg32.o)
 .debug_line    0x00000000000019b3      0x2ba NuttX/nuttx/arch/arm/src/libarch.a(arm_udelay.o)
 .debug_line    0x0000000000001c6d      0x20f NuttX/nuttx/arch/arm/src/libarch.a(arm_cache.o)
 .debug_line    0x0000000000001e7c      0x4f7 NuttX/nuttx/arch/arm/src/libarch.a(stm32_irq.o)
 .debug_line    0x0000000000002373      0x298 NuttX/nuttx/arch/arm/src/libarch.a(arm_hardfault.o)
 .debug_line    0x000000000000260b      0x2e4 NuttX/nuttx/arch/arm/src/libarch.a(arm_svcall.o)
 .debug_line    0x00000000000028ef       0xf4 NuttX/nuttx/libs/libc/libc.a(arch_memcpy.o)
 .debug_line    0x00000000000029e3      0x1a7 NuttX/nuttx/libs/libc/libc.a(lib_assert.o)
 .debug_line    0x0000000000002b8a       0x9e NuttX/nuttx/libs/libc/libc.a(lib_abort.o)
 .debug_line    0x0000000000002c28      0x288 boards/hkust/nxt/src/libdrivers_board.a(bootloader_main.c.obj)
 .debug_line    0x0000000000002eb0      0x239 boards/hkust/nxt/src/libdrivers_board.a(usb.c.obj)
 .debug_line    0x00000000000030e9      0x937 NuttX/nuttx/sched/libsched.a(nx_start.o)
 .debug_line    0x0000000000003a20      0x215 NuttX/nuttx/sched/libsched.a(nx_bringup.o)
 .debug_line    0x0000000000003c35      0x2ea NuttX/nuttx/sched/libsched.a(irq_attach.o)
 .debug_line    0x0000000000003f1f      0x401 NuttX/nuttx/sched/libsched.a(irq_dispatch.o)
 .debug_line    0x0000000000004320      0x27f NuttX/nuttx/sched/libsched.a(irq_unexpectedisr.o)
 .debug_line    0x000000000000459f      0x34c NuttX/nuttx/sched/libsched.a(sched_lock.o)
 .debug_line    0x00000000000048eb      0x423 NuttX/nuttx/sched/libsched.a(sched_unlock.o)
 .debug_line    0x0000000000004d0e      0x430 NuttX/nuttx/sched/libsched.a(task_create.o)
 .debug_line    0x000000000000513e      0x513 NuttX/nuttx/sched/libsched.a(task_init.o)
 .debug_line    0x0000000000005651      0x73a NuttX/nuttx/sched/libsched.a(task_setup.o)
 .debug_line    0x0000000000005d8b      0x2da NuttX/nuttx/sched/libsched.a(task_activate.o)
 .debug_line    0x0000000000006065      0x3ae NuttX/nuttx/sched/libsched.a(task_start.o)
 .debug_line    0x0000000000006413      0x3b9 NuttX/nuttx/sched/libsched.a(exit.o)
 .debug_line    0x00000000000067cc      0x45a NuttX/nuttx/sched/libsched.a(group_create.o)
 .debug_line    0x0000000000006c26      0x40a NuttX/nuttx/sched/libsched.a(group_leave.o)
 .debug_line    0x0000000000007030      0x32a NuttX/nuttx/sched/libsched.a(group_setupidlefiles.o)
 .debug_line    0x000000000000735a      0x377 NuttX/nuttx/sched/libsched.a(group_setuptaskfiles.o)
 .debug_line    0x00000000000076d1      0x221 NuttX/nuttx/sched/libsched.a(irq_initialize.o)
 .debug_line    0x00000000000078f2      0x472 NuttX/nuttx/sched/libsched.a(sched_releasetcb.o)
 .debug_line    0x0000000000007d64      0x207 NuttX/nuttx/sched/libsched.a(sem_destroy.o)
 .debug_line    0x0000000000007f6b      0x476 NuttX/nuttx/sched/libsched.a(sig_procmask.o)
 .debug_line    0x00000000000083e1      0x400 NuttX/nuttx/sched/libsched.a(sig_unmaskpendingsignal.o)
 .debug_line    0x00000000000087e1      0x3b5 NuttX/nuttx/sched/libsched.a(sig_removependingsignal.o)
 .debug_line    0x0000000000008b96      0x36a NuttX/nuttx/sched/libsched.a(sig_releasependingsignal.o)
 .debug_line    0x0000000000008f00      0x279 NuttX/nuttx/sched/libsched.a(sig_lowest.o)
 .debug_line    0x0000000000009179      0x38d NuttX/nuttx/sched/libsched.a(sig_cleanup.o)
 .debug_line    0x0000000000009506      0x87f NuttX/nuttx/sched/libsched.a(sig_dispatch.o)
 .debug_line    0x0000000000009d85      0x49f NuttX/nuttx/sched/libsched.a(sig_deliver.o)
 .debug_line    0x000000000000a224      0x6a1 NuttX/nuttx/sched/libsched.a(sig_default.o)
 .debug_line    0x000000000000a8c5      0x443 NuttX/nuttx/sched/libsched.a(task_exithook.o)
 .debug_line    0x000000000000ad08      0x3c1 NuttX/nuttx/sched/libsched.a(task_recover.o)
 .debug_line    0x000000000000b0c9      0x403 NuttX/nuttx/sched/libsched.a(task_cancelpt.o)
 .debug_line    0x000000000000b4cc      0x2b1 NuttX/nuttx/sched/libsched.a(wd_recover.o)
 .debug_line    0x000000000000b77d      0x322 NuttX/nuttx/sched/libsched.a(group_setupstreams.o)
 .debug_line    0x000000000000ba9f      0x3b0 NuttX/nuttx/sched/libsched.a(sched_gettcb.o)
 .debug_line    0x000000000000be4f      0x3a0 NuttX/nuttx/sched/libsched.a(sched_suspend.o)
 .debug_line    0x000000000000c1ef      0x37a NuttX/nuttx/sched/libsched.a(sched_continue.o)
 .debug_line    0x000000000000c569      0x2ee NuttX/nuttx/sched/libsched.a(sem_recover.o)
 .debug_line    0x000000000000c857      0x310 NuttX/nuttx/sched/libsched.a(sem_waitirq.o)
 .debug_line    0x000000000000cb67      0x3bf NuttX/nuttx/sched/libsched.a(sig_initialize.o)
 .debug_line    0x000000000000cf26      0x53b NuttX/nuttx/sched/libsched.a(sig_action.o)
 .debug_line    0x000000000000d461      0x45a NuttX/nuttx/sched/libsched.a(sig_pending.o)
 .debug_line    0x000000000000d8bb      0x2ec NuttX/nuttx/sched/libsched.a(sig_findaction.o)
 .debug_line    0x000000000000dba7      0x378 NuttX/nuttx/sched/libsched.a(sig_allocpendingsigaction.o)
 .debug_line    0x000000000000df1f      0x36d NuttX/nuttx/sched/libsched.a(sig_releasependingsigaction.o)
 .debug_line    0x000000000000e28c      0x43a NuttX/nuttx/sched/libsched.a(wd_cancel.o)
 .debug_line    0x000000000000e6c6      0x345 NuttX/nuttx/sched/libsched.a(sched_addblocked.o)
 .debug_line    0x000000000000ea0b      0x32c NuttX/nuttx/sched/libsched.a(sched_removeblocked.o)
 .debug_line    0x000000000000ed37      0x1da NuttX/nuttx/sched/libsched.a(wd_initialize.o)
 .debug_line    0x000000000000ef11      0x3eb NuttX/nuttx/sched/libsched.a(sched_addprioritized.o)
 .debug_line    0x000000000000f2fc      0x264 NuttX/apps/libapps.a(cdcacm_main.c.src.NxtPX4.PX4-Autopilot.platforms.nuttx.NuttX.apps.system.cdcacm.o)
 .debug_line    0x000000000000f560      0x2b3 NuttX/nuttx/arch/arm/src/libarch.a(stm32_allocateheap.o)
 .debug_line    0x000000000000f813      0x503 NuttX/nuttx/arch/arm/src/libarch.a(stm32_gpio.o)
 .debug_line    0x000000000000fd16      0x4fd NuttX/nuttx/arch/arm/src/libarch.a(arm_assert.o)
 .debug_line    0x0000000000010213      0x3f1 NuttX/nuttx/arch/arm/src/libarch.a(arm_blocktask.o)
 .debug_line    0x0000000000010604      0x182 NuttX/nuttx/arch/arm/src/libarch.a(arm_copyfullstate.o)
 .debug_line    0x0000000000010786      0x419 NuttX/nuttx/arch/arm/src/libarch.a(arm_createstack.o)
 .debug_line    0x0000000000010b9f      0x413 NuttX/nuttx/arch/arm/src/libarch.a(arm_exit.o)
 .debug_line    0x0000000000010fb2      0x30b NuttX/nuttx/arch/arm/src/libarch.a(arm_initialize.o)
 .debug_line    0x00000000000112bd      0x351 NuttX/nuttx/arch/arm/src/libarch.a(arm_initialstate.o)
 .debug_line    0x000000000001160e      0x1af NuttX/nuttx/arch/arm/src/libarch.a(arm_interruptcontext.o)
 .debug_line    0x00000000000117bd      0x3cc NuttX/nuttx/arch/arm/src/libarch.a(arm_releasepending.o)
 .debug_line    0x0000000000011b89      0x319 NuttX/nuttx/arch/arm/src/libarch.a(arm_releasestack.o)
 .debug_line    0x0000000000011ea2      0x4b2 NuttX/nuttx/arch/arm/src/libarch.a(arm_schedulesigaction.o)
 .debug_line    0x0000000000012354      0x496 NuttX/nuttx/arch/arm/src/libarch.a(arm_sigdeliver.o)
 .debug_line    0x00000000000127ea      0x2ec NuttX/nuttx/arch/arm/src/libarch.a(arm_stackframe.o)
 .debug_line    0x0000000000012ad6      0x41f NuttX/nuttx/arch/arm/src/libarch.a(arm_unblocktask.o)
 .debug_line    0x0000000000012ef5      0x379 NuttX/nuttx/arch/arm/src/libarch.a(arm_usestack.o)
 .debug_line    0x000000000001326e      0x196 NuttX/nuttx/arch/arm/src/libarch.a(arm_idle.o)
 .debug_line    0x0000000000013404      0x517 NuttX/nuttx/arch/arm/src/libarch.a(arm_checkstack.o)
 .debug_line    0x000000000001391b       0x58 NuttX/nuttx/arch/arm/src/libarch.a(arm_fullcontextrestore.o)
 .debug_line    0x0000000000013973       0x54 NuttX/nuttx/arch/arm/src/libarch.a(arm_switchcontext.o)
 .debug_line    0x00000000000139c7      0xeac NuttX/nuttx/arch/arm/src/libarch.a(stm32_serial.o)
 .debug_line    0x0000000000014873     0x28ae NuttX/nuttx/arch/arm/src/libarch.a(stm32_otgdev.o)
 .debug_line    0x0000000000017121      0x1f5 NuttX/nuttx/arch/arm/src/libarch.a(arm_mdelay.o)
 .debug_line    0x0000000000017316      0x1e6 NuttX/nuttx/mm/libmm.a(umm_initialize.o)
 .debug_line    0x00000000000174fc      0x1e0 NuttX/nuttx/mm/libmm.a(umm_free.o)
 .debug_line    0x00000000000176dc      0x1e7 NuttX/nuttx/mm/libmm.a(umm_malloc.o)
 .debug_line    0x00000000000178c3      0x1ee NuttX/nuttx/mm/libmm.a(umm_memalign.o)
 .debug_line    0x0000000000017ab1      0x1eb NuttX/nuttx/mm/libmm.a(umm_zalloc.o)
 .debug_line    0x0000000000017c9c      0x383 NuttX/nuttx/mm/libmm.a(mm_initialize.o)
 .debug_line    0x000000000001801f      0x2d6 NuttX/nuttx/mm/libmm.a(mm_sem.o)
 .debug_line    0x00000000000182f5      0x297 NuttX/nuttx/mm/libmm.a(mm_addfreechunk.o)
 .debug_line    0x000000000001858c      0x25d NuttX/nuttx/mm/libmm.a(mm_size2ndx.o)
 .debug_line    0x00000000000187e9      0x3f1 NuttX/nuttx/mm/libmm.a(mm_free.o)
 .debug_line    0x0000000000018bda      0x429 NuttX/nuttx/mm/libmm.a(mm_malloc.o)
 .debug_line    0x0000000000019003      0x398 NuttX/nuttx/mm/libmm.a(mm_memalign.o)
 .debug_line    0x000000000001939b      0x15a NuttX/nuttx/mm/libmm.a(mm_zalloc.o)
 .debug_line    0x00000000000194f5      0x1a0 NuttX/nuttx/mm/libmm.a(umm_globals.o)
 .debug_line    0x0000000000019695      0x305 NuttX/nuttx/mm/libmm.a(mm_shrinkchunk.o)
 .debug_line    0x000000000001999a      0x201 NuttX/nuttx/libs/libc/libc.a(lib_errno.o)
 .debug_line    0x0000000000019b9b      0x355 NuttX/nuttx/libs/libc/libc.a(lib_stream.o)
 .debug_line    0x0000000000019ef0      0x354 NuttX/nuttx/libs/libc/libc.a(lib_filesem.o)
 .debug_line    0x000000000001a244       0xbb NuttX/nuttx/libs/libc/libc.a(sq_addlast.o)
 .debug_line    0x000000000001a2ff       0xe7 NuttX/nuttx/libs/libc/libc.a(sq_rem.o)
 .debug_line    0x000000000001a3e6       0xc9 NuttX/nuttx/libs/libc/libc.a(sq_remfirst.o)
 .debug_line    0x000000000001a4af       0xd7 NuttX/nuttx/libs/libc/libc.a(sq_remafter.o)
 .debug_line    0x000000000001a586       0xc3 NuttX/nuttx/libs/libc/libc.a(dq_addlast.o)
 .debug_line    0x000000000001a649       0xc3 NuttX/nuttx/libs/libc/libc.a(dq_addfirst.o)
 .debug_line    0x000000000001a70c       0xd0 NuttX/nuttx/libs/libc/libc.a(dq_rem.o)
 .debug_line    0x000000000001a7dc      0x1a6 NuttX/nuttx/libs/libc/libc.a(task_startup.o)
 .debug_line    0x000000000001a982      0x23b NuttX/nuttx/libs/libc/libc.a(sem_init.o)
 .debug_line    0x000000000001abbd      0x19f NuttX/nuttx/libs/libc/libc.a(sig_addset.o)
 .debug_line    0x000000000001ad5c      0x19f NuttX/nuttx/libs/libc/libc.a(sig_delset.o)
 .debug_line    0x000000000001aefb      0x148 NuttX/nuttx/libs/libc/libc.a(sig_emptyset.o)
 .debug_line    0x000000000001b043      0x1f2 NuttX/nuttx/libs/libc/libc.a(sig_ismember.o)
 .debug_line    0x000000000001b235      0x1f4 NuttX/nuttx/libs/libc/libc.a(lib_printf.o)
 .debug_line    0x000000000001b429      0x2ef NuttX/nuttx/libs/libc/libc.a(lib_libflushall.o)
 .debug_line    0x000000000001b718      0x386 NuttX/nuttx/libs/libc/libc.a(lib_libfflush.o)
 .debug_line    0x000000000001ba9e      0x30b NuttX/nuttx/libs/libc/libc.a(lib_vfprintf.o)
 .debug_line    0x000000000001bda9      0x33e NuttX/nuttx/libs/libc/libc.a(lib_stdoutstream.o)
 .debug_line    0x000000000001c0e7      0x247 NuttX/nuttx/libs/libc/libc.a(lib_memset.o)
 .debug_line    0x000000000001c32e       0xba NuttX/nuttx/libs/libc/libc.a(lib_strcpy.o)
 .debug_line    0x000000000001c3e8      0x148 NuttX/nuttx/libs/libc/libc.a(lib_strlen.o)
 .debug_line    0x000000000001c530      0x178 NuttX/nuttx/libs/libc/libc.a(lib_strncpy.o)
 .debug_line    0x000000000001c6a8      0x1d8 NuttX/nuttx/libs/libc/libc.a(lib_cfspeed.o)
 .debug_line    0x000000000001c880      0x21c NuttX/nuttx/libs/libc/libc.a(tls_getinfo.o)
 .debug_line    0x000000000001ca9c      0x26a NuttX/nuttx/libs/libc/libc.a(lib_streamsem.o)
 .debug_line    0x000000000001cd06      0x1e0 NuttX/nuttx/libs/libc/libc.a(lib_libnoflush.o)
 .debug_line    0x000000000001cee6      0xb1f NuttX/nuttx/libs/libc/libc.a(lib_libvsprintf.o)
 .debug_line    0x000000000001da05       0xc8 NuttX/nuttx/libs/libc/libc.a(lib_ultoa_invert.o)
 .debug_line    0x000000000001dacd      0x3d6 NuttX/nuttx/libs/libc/libc.a(lib_dtoa_engine.o)
 .debug_line    0x000000000001dea3       0x4b NuttX/nuttx/libs/libc/libc.a(lib_dtoa_data.o)
 .debug_line    0x000000000001deee      0x2c7 NuttX/nuttx/libs/libc/libc.a(lib_fputc.o)
 .debug_line    0x000000000001e1b5      0x160 NuttX/nuttx/libs/libc/libc.a(lib_strnlen.o)
 .debug_line    0x000000000001e315      0x407 NuttX/nuttx/libs/libc/libc.a(lib_libfwrite.o)
 .debug_line    0x000000000001e71c      0x313 NuttX/nuttx/libs/libc/libc.a(lib_rdflush.o)
 .debug_line    0x000000000001ea2f      0x2cc NuttX/nuttx/libs/libc/libc.a(lib_fseek.o)
 .debug_line    0x000000000001ecfb      0x29e NuttX/nuttx/libs/libc/libc.a(lib_wrflush.o)
 .debug_line    0x000000000001ef99      0xb51 platforms/nuttx/src/bootloader/common/libbootloader.a(bl.c.obj)
 .debug_line    0x000000000001faea      0x284 platforms/nuttx/src/bootloader/common/lib/libbootloader_lib.a(cdcacm.c.obj)
 .debug_line    0x000000000001fd6e      0x2f5 platforms/nuttx/src/bootloader/common/lib/libbootloader_lib.a(uart.c.obj)
 .debug_line    0x0000000000020063      0x28f NuttX/nuttx/boards/libboards.a(boardctl.o)
 .debug_line    0x00000000000202f2     0x144f NuttX/nuttx/drivers/libdrivers.a(serial.o)
 .debug_line    0x0000000000021741      0x405 NuttX/nuttx/drivers/libdrivers.a(serial_io.o)
 .debug_line    0x0000000000021b46      0x17d NuttX/nuttx/drivers/libdrivers.a(syslog_flush.o)
 .debug_line    0x0000000000021cc3      0x1ee NuttX/nuttx/drivers/libdrivers.a(syslog_initialize.o)
 .debug_line    0x0000000000021eb1     0x1c9e NuttX/nuttx/drivers/libdrivers.a(cdcacm.o)
 .debug_line    0x0000000000023b4f      0x64d NuttX/nuttx/drivers/libdrivers.a(cdcacm_desc.o)
 .debug_line    0x000000000002419c      0x2bf NuttX/nuttx/drivers/libdrivers.a(dev_null.o)
 .debug_line    0x000000000002445b      0x2f8 NuttX/nuttx/drivers/libdrivers.a(syslog_channel.o)
 .debug_line    0x0000000000024753      0x227 NuttX/nuttx/fs/libfs.a(fs_initialize.o)
 .debug_line    0x000000000002497a      0x840 NuttX/nuttx/fs/libfs.a(fs_files.o)
 .debug_line    0x00000000000251ba      0x35d NuttX/nuttx/fs/libfs.a(fs_inode.o)
 .debug_line    0x0000000000025517      0x480 NuttX/nuttx/fs/libfs.a(fs_inodereserve.o)
 .debug_line    0x0000000000025997      0x3f3 NuttX/nuttx/fs/libfs.a(fs_inodesearch.o)
 .debug_line    0x0000000000025d8a      0x2be NuttX/nuttx/fs/libfs.a(fs_close.o)
 .debug_line    0x0000000000026048      0x335 NuttX/nuttx/fs/libfs.a(fs_dup2.o)
 .debug_line    0x000000000002637d      0x374 NuttX/nuttx/fs/libfs.a(fs_lseek.o)
 .debug_line    0x00000000000266f1      0x534 NuttX/nuttx/fs/libfs.a(fs_open.o)
 .debug_line    0x0000000000026c25      0x35e NuttX/nuttx/fs/libfs.a(fs_read.o)
 .debug_line    0x0000000000026f83      0x35a NuttX/nuttx/fs/libfs.a(fs_write.o)
 .debug_line    0x00000000000272dd      0x4ec NuttX/nuttx/fs/libfs.a(fs_fdopen.o)
 .debug_line    0x00000000000277c9      0x2af NuttX/nuttx/fs/libfs.a(fs_registerdriver.o)
 .debug_line    0x0000000000027a78      0x291 NuttX/nuttx/fs/libfs.a(fs_unregisterdriver.o)
 .debug_line    0x0000000000027d09      0x29e NuttX/nuttx/fs/libfs.a(fs_inodeaddref.o)
 .debug_line    0x0000000000027fa7      0x2a2 NuttX/nuttx/fs/libfs.a(fs_inodefind.o)
 .debug_line    0x0000000000028249      0x2e3 NuttX/nuttx/fs/libfs.a(fs_inoderelease.o)
 .debug_line    0x000000000002852c      0x340 NuttX/nuttx/fs/libfs.a(fs_inoderemove.o)
 .debug_line    0x000000000002886c      0x28f NuttX/nuttx/fs/libfs.a(fs_inodefree.o)
 .debug_line    0x0000000000028afb      0x24d NuttX/nuttx/sched/libsched.a(clock_initialize.o)
 .debug_line    0x0000000000028d48      0x325 NuttX/nuttx/sched/libsched.a(sched_getfiles.o)
 .debug_line    0x000000000002906d      0x3d4 NuttX/nuttx/sched/libsched.a(sched_addreadytorun.o)
 .debug_line    0x0000000000029441      0x3b2 NuttX/nuttx/sched/libsched.a(sched_removereadytorun.o)
 .debug_line    0x00000000000297f3      0x438 NuttX/nuttx/sched/libsched.a(sched_mergepending.o)
 .debug_line    0x0000000000029c2b      0x31b NuttX/nuttx/sched/libsched.a(sched_getstreams.o)
 .debug_line    0x0000000000029f46      0x338 NuttX/nuttx/sched/libsched.a(sched_idletask.o)
 .debug_line    0x000000000002a27e      0x309 NuttX/nuttx/sched/libsched.a(sched_self.o)
 .debug_line    0x000000000002a587      0x385 NuttX/nuttx/sched/libsched.a(sched_get_stackinfo.o)
 .debug_line    0x000000000002a90c      0x496 NuttX/nuttx/sched/libsched.a(sem_wait.o)
 .debug_line    0x000000000002ada2      0x404 NuttX/nuttx/sched/libsched.a(sem_trywait.o)
 .debug_line    0x000000000002b1a6      0x474 NuttX/nuttx/sched/libsched.a(sem_post.o)
 .debug_line    0x000000000002b61a      0x29b NuttX/nuttx/sched/libsched.a(sem_reset.o)
 .debug_line    0x000000000002b8b5      0x404 NuttX/nuttx/sched/libsched.a(sig_kill.o)
 .debug_line    0x000000000002bcb9      0x1c8 NuttX/nuttx/sched/libsched.a(sig_usleep.o)
 .debug_line    0x000000000002be81      0x40a NuttX/nuttx/sched/libsched.a(task_exit.o)
 .debug_line    0x000000000002c28b      0x336 NuttX/nuttx/sched/libsched.a(task_getpid.o)
 .debug_line    0x000000000002c5c1      0x46e NuttX/nuttx/sched/libsched.a(task_terminate.o)
 .debug_line    0x000000000002ca2f      0x553 NuttX/nuttx/sched/libsched.a(wd_start.o)
 .debug_line    0x000000000002cf82      0x44e NuttX/nuttx/sched/libsched.a(sig_nanosleep.o)
 .debug_line    0x000000000002d3d0      0x5b3 NuttX/nuttx/sched/libsched.a(sig_timedwait.o)
 .debug_line    0x000000000002d983      0x2de NuttX/nuttx/arch/arm/src/libarch.a(stm32_timerisr.o)
 .debug_line    0x000000000002dc61      0x1ed NuttX/nuttx/mm/libmm.a(umm_realloc.o)
 .debug_line    0x000000000002de4e      0x4fd NuttX/nuttx/mm/libmm.a(mm_realloc.o)
 .debug_line    0x000000000002e34b      0x23a NuttX/nuttx/libs/libc/libc.a(lib_umask.o)
 .debug_line    0x000000000002e585       0xb3 NuttX/nuttx/libs/libc/libc.a(sq_addfirst.o)
 .debug_line    0x000000000002e638       0xb8 NuttX/nuttx/libs/libc/libc.a(sq_addafter.o)
 .debug_line    0x000000000002e6f0      0x1ab NuttX/nuttx/libs/libc/libc.a(clock_ticks2time.o)
 .debug_line    0x000000000002e89b      0x1bf NuttX/nuttx/libs/libc/libc.a(clock_time2ticks.o)
 .debug_line    0x000000000002ea5a      0x20c NuttX/nuttx/libs/libc/libc.a(sem_getvalue.o)
 .debug_line    0x000000000002ec66      0x1f5 NuttX/nuttx/libs/libc/libc.a(sem_setprotocol.o)
 .debug_line    0x000000000002ee5b      0x239 NuttX/nuttx/libs/libc/libc.a(lib_asprintf.o)
 .debug_line    0x000000000002f094      0x26e NuttX/nuttx/libs/libc/libc.a(lib_snprintf.o)
 .debug_line    0x000000000002f302      0x291 NuttX/nuttx/libs/libc/libc.a(lib_vasprintf.o)
 .debug_line    0x000000000002f593      0x24a NuttX/nuttx/libs/libc/libc.a(lib_memoutstream.o)
 .debug_line    0x000000000002f7dd      0x211 NuttX/nuttx/libs/libc/libc.a(lib_nulloutstream.o)
 .debug_line    0x000000000002f9ee       0x93 NuttX/nuttx/libs/libc/libc.a(lib_atol.o)
 .debug_line    0x000000000002fa81      0x2eb NuttX/nuttx/libs/libc/libc.a(lib_strtol.o)
 .debug_line    0x000000000002fd6c      0x342 NuttX/nuttx/libs/libc/libc.a(lib_strtoul.o)
 .debug_line    0x00000000000300ae      0x2b2 NuttX/nuttx/libs/libc/libc.a(lib_checkbase.o)
 .debug_line    0x0000000000030360      0x275 NuttX/nuttx/libs/libc/libc.a(lib_isbasedigit.o)
 .debug_line    0x00000000000305d5      0x201 NuttX/nuttx/libs/libc/libc.a(lib_skipspace.o)
 .debug_line    0x00000000000307d6      0x204 NuttX/nuttx/libs/libc/libc.a(lib_strdup.o)
 .debug_line    0x00000000000309da       0x98 NuttX/nuttx/libs/libc/libc.a(lib_strtok.o)
 .debug_line    0x0000000000030a72      0x10c NuttX/nuttx/libs/libc/libc.a(lib_strtokr.o)
 .debug_line    0x0000000000030b7e       0xbf NuttX/nuttx/libs/libc/libc.a(lib_strchr.o)
 .debug_line    0x0000000000030c3d       0xeb NuttX/nuttx/libs/libc/libc.a(lib_tcgetattr.o)
 .debug_line    0x0000000000030d28      0x108 NuttX/nuttx/libs/libc/libc.a(lib_tcsetattr.o)
 .debug_line    0x0000000000030e30      0x1f7 NuttX/nuttx/libs/libc/libc.a(task_getinfo.o)
 .debug_line    0x0000000000031027       0xa0 NuttX/nuttx/libs/libc/libc.a(lib_isspace.o)
 .debug_line    0x00000000000310c7       0xe9 NuttX/nuttx/libs/libc/libc.a(lib_tcflush.o)
 .debug_line    0x00000000000311b0       0xeb NuttX/nuttx/drivers/libdrivers.a(tcdrain.o)
 .debug_line    0x000000000003129b      0x489 NuttX/nuttx/fs/libfs.a(fs_ioctl.o)
 .debug_line    0x0000000000031724      0x2d2 NuttX/nuttx/fs/libfs.a(fs_inodegetpath.o)
 .debug_line    0x00000000000319f6      0x47b NuttX/nuttx/fs/libfs.a(fs_fcntl.o)
 .debug_line    0x0000000000031e71      0x338 NuttX/nuttx/fs/libfs.a(fs_dup.o)
 .debug_line    0x00000000000321a9      0x3e3 NuttX/nuttx/sched/libsched.a(sched_processtimer.o)
 .debug_line    0x000000000003258c       0xce NuttX/nuttx/libs/libc/libc.a(lib_strcat.o)
 .debug_line    0x000000000003265a      0x937 platforms/nuttx/src/bootloader/stm/stm32h7/arch_bootloader/libarch_bootloader.a(main.c.obj)
 .debug_line    0x0000000000032f91      0x1d2 platforms/nuttx/src/bootloader/stm/stm32h7/arch_bootloader/libarch_bootloader.a(systick.c.obj)
 .debug_line    0x0000000000033163      0x336 platforms/nuttx/src/px4/stm/stm32h7/board_reset/libarch_board_reset.a(board_reset.cpp.obj)
 .debug_line    0x0000000000033499      0x1ba NuttX/nuttx/arch/arm/src/libarch.a(arm_systemreset.o)
 .debug_line    0x0000000000033653      0xab8 NuttX/nuttx/arch/arm/src/libarch.a(stm32_flash.o)
 .debug_line    0x000000000003410b      0x35b platforms/nuttx/src/bootloader/common/lib/libbootloader_lib.a(flash_cache.c.obj)

.debug_pubnames
 *(.debug_pubnames)

.debug_aranges  0x0000000000000000     0x2778
 *(.debug_aranges)
 .debug_aranges
                0x0000000000000000       0x18 NuttX/nuttx/arch/arm/src/libarch.a(arm_vectors.o)
 .debug_aranges
                0x0000000000000018       0x20 NuttX/nuttx/arch/arm/src/libarch.a(arm_exception.o)
 .debug_aranges
                0x0000000000000038       0x20 NuttX/nuttx/arch/arm/src/libarch.a(stm32_start.o)
 .debug_aranges
                0x0000000000000058       0x28 NuttX/nuttx/arch/arm/src/libarch.a(stm32_rcc.o)
 .debug_aranges
                0x0000000000000080       0x28 NuttX/nuttx/arch/arm/src/libarch.a(stm32_lowputc.o)
 .debug_aranges
                0x00000000000000a8       0x58 NuttX/nuttx/arch/arm/src/libarch.a(stm32_pwr.o)
 .debug_aranges
                0x0000000000000100       0x20 NuttX/nuttx/arch/arm/src/libarch.a(arm_doirq.o)
 .debug_aranges
                0x0000000000000120       0x20 NuttX/nuttx/arch/arm/src/libarch.a(arm_modifyreg32.o)
 .debug_aranges
                0x0000000000000140       0x20 NuttX/nuttx/arch/arm/src/libarch.a(arm_udelay.o)
 .debug_aranges
                0x0000000000000160       0x38 NuttX/nuttx/arch/arm/src/libarch.a(arm_cache.o)
 .debug_aranges
                0x0000000000000198       0x40 NuttX/nuttx/arch/arm/src/libarch.a(stm32_irq.o)
 .debug_aranges
                0x00000000000001d8       0x20 NuttX/nuttx/arch/arm/src/libarch.a(arm_hardfault.o)
 .debug_aranges
                0x00000000000001f8       0x20 NuttX/nuttx/arch/arm/src/libarch.a(arm_svcall.o)
 .debug_aranges
                0x0000000000000218       0x20 NuttX/nuttx/libs/libc/libc.a(arch_memcpy.o)
 .debug_aranges
                0x0000000000000238       0x20 NuttX/nuttx/libs/libc/libc.a(lib_assert.o)
 .debug_aranges
                0x0000000000000258       0x20 NuttX/nuttx/libs/libc/libc.a(lib_abort.o)
 .debug_aranges
                0x0000000000000278       0x40 boards/hkust/nxt/src/libdrivers_board.a(bootloader_main.c.obj)
 .debug_aranges
                0x00000000000002b8       0x28 boards/hkust/nxt/src/libdrivers_board.a(usb.c.obj)
 .debug_aranges
                0x00000000000002e0       0x20 NuttX/nuttx/sched/libsched.a(nx_start.o)
 .debug_aranges
                0x0000000000000300       0x28 NuttX/nuttx/sched/libsched.a(nx_bringup.o)
 .debug_aranges
                0x0000000000000328       0x20 NuttX/nuttx/sched/libsched.a(irq_attach.o)
 .debug_aranges
                0x0000000000000348       0x20 NuttX/nuttx/sched/libsched.a(irq_dispatch.o)
 .debug_aranges
                0x0000000000000368       0x20 NuttX/nuttx/sched/libsched.a(irq_unexpectedisr.o)
 .debug_aranges
                0x0000000000000388       0x20 NuttX/nuttx/sched/libsched.a(sched_lock.o)
 .debug_aranges
                0x00000000000003a8       0x20 NuttX/nuttx/sched/libsched.a(sched_unlock.o)
 .debug_aranges
                0x00000000000003c8       0x40 NuttX/nuttx/sched/libsched.a(task_create.o)
 .debug_aranges
                0x0000000000000408       0x28 NuttX/nuttx/sched/libsched.a(task_init.o)
 .debug_aranges
                0x0000000000000430       0x28 NuttX/nuttx/sched/libsched.a(task_setup.o)
 .debug_aranges
                0x0000000000000458       0x20 NuttX/nuttx/sched/libsched.a(task_activate.o)
 .debug_aranges
                0x0000000000000478       0x20 NuttX/nuttx/sched/libsched.a(task_start.o)
 .debug_aranges
                0x0000000000000498       0x28 NuttX/nuttx/sched/libsched.a(exit.o)
 .debug_aranges
                0x00000000000004c0       0x30 NuttX/nuttx/sched/libsched.a(group_create.o)
 .debug_aranges
                0x00000000000004f0       0x20 NuttX/nuttx/sched/libsched.a(group_leave.o)
 .debug_aranges
                0x0000000000000510       0x20 NuttX/nuttx/sched/libsched.a(group_setupidlefiles.o)
 .debug_aranges
                0x0000000000000530       0x20 NuttX/nuttx/sched/libsched.a(group_setuptaskfiles.o)
 .debug_aranges
                0x0000000000000550       0x20 NuttX/nuttx/sched/libsched.a(irq_initialize.o)
 .debug_aranges
                0x0000000000000570       0x20 NuttX/nuttx/sched/libsched.a(sched_releasetcb.o)
 .debug_aranges
                0x0000000000000590       0x28 NuttX/nuttx/sched/libsched.a(sem_destroy.o)
 .debug_aranges
                0x00000000000005b8       0x28 NuttX/nuttx/sched/libsched.a(sig_procmask.o)
 .debug_aranges
                0x00000000000005e0       0x20 NuttX/nuttx/sched/libsched.a(sig_unmaskpendingsignal.o)
 .debug_aranges
                0x0000000000000600       0x20 NuttX/nuttx/sched/libsched.a(sig_removependingsignal.o)
 .debug_aranges
                0x0000000000000620       0x20 NuttX/nuttx/sched/libsched.a(sig_releasependingsignal.o)
 .debug_aranges
                0x0000000000000640       0x20 NuttX/nuttx/sched/libsched.a(sig_lowest.o)
 .debug_aranges
                0x0000000000000660       0x28 NuttX/nuttx/sched/libsched.a(sig_cleanup.o)
 .debug_aranges
                0x0000000000000688       0x28 NuttX/nuttx/sched/libsched.a(sig_dispatch.o)
 .debug_aranges
                0x00000000000006b0       0x20 NuttX/nuttx/sched/libsched.a(sig_deliver.o)
 .debug_aranges
                0x00000000000006d0       0x50 NuttX/nuttx/sched/libsched.a(sig_default.o)
 .debug_aranges
                0x0000000000000720       0x20 NuttX/nuttx/sched/libsched.a(task_exithook.o)
 .debug_aranges
                0x0000000000000740       0x20 NuttX/nuttx/sched/libsched.a(task_recover.o)
 .debug_aranges
                0x0000000000000760       0x20 NuttX/nuttx/sched/libsched.a(task_cancelpt.o)
 .debug_aranges
                0x0000000000000780       0x20 NuttX/nuttx/sched/libsched.a(wd_recover.o)
 .debug_aranges
                0x00000000000007a0       0x20 NuttX/nuttx/sched/libsched.a(group_setupstreams.o)
 .debug_aranges
                0x00000000000007c0       0x20 NuttX/nuttx/sched/libsched.a(sched_gettcb.o)
 .debug_aranges
                0x00000000000007e0       0x20 NuttX/nuttx/sched/libsched.a(sched_suspend.o)
 .debug_aranges
                0x0000000000000800       0x20 NuttX/nuttx/sched/libsched.a(sched_continue.o)
 .debug_aranges
                0x0000000000000820       0x20 NuttX/nuttx/sched/libsched.a(sem_recover.o)
 .debug_aranges
                0x0000000000000840       0x20 NuttX/nuttx/sched/libsched.a(sem_waitirq.o)
 .debug_aranges
                0x0000000000000860       0x28 NuttX/nuttx/sched/libsched.a(sig_initialize.o)
 .debug_aranges
                0x0000000000000888       0x30 NuttX/nuttx/sched/libsched.a(sig_action.o)
 .debug_aranges
                0x00000000000008b8       0x28 NuttX/nuttx/sched/libsched.a(sig_pending.o)
 .debug_aranges
                0x00000000000008e0       0x20 NuttX/nuttx/sched/libsched.a(sig_findaction.o)
 .debug_aranges
                0x0000000000000900       0x20 NuttX/nuttx/sched/libsched.a(sig_allocpendingsigaction.o)
 .debug_aranges
                0x0000000000000920       0x20 NuttX/nuttx/sched/libsched.a(sig_releasependingsigaction.o)
 .debug_aranges
                0x0000000000000940       0x20 NuttX/nuttx/sched/libsched.a(wd_cancel.o)
 .debug_aranges
                0x0000000000000960       0x20 NuttX/nuttx/sched/libsched.a(sched_addblocked.o)
 .debug_aranges
                0x0000000000000980       0x20 NuttX/nuttx/sched/libsched.a(sched_removeblocked.o)
 .debug_aranges
                0x00000000000009a0       0x20 NuttX/nuttx/sched/libsched.a(wd_initialize.o)
 .debug_aranges
                0x00000000000009c0       0x20 NuttX/nuttx/sched/libsched.a(sched_addprioritized.o)
 .debug_aranges
                0x00000000000009e0       0x28 NuttX/apps/libapps.a(cdcacm_main.c.src.NxtPX4.PX4-Autopilot.platforms.nuttx.NuttX.apps.system.cdcacm.o)
 .debug_aranges
                0x0000000000000a08       0x20 NuttX/nuttx/arch/arm/src/libarch.a(stm32_allocateheap.o)
 .debug_aranges
                0x0000000000000a28       0x40 NuttX/nuttx/arch/arm/src/libarch.a(stm32_gpio.o)
 .debug_aranges
                0x0000000000000a68       0x20 NuttX/nuttx/arch/arm/src/libarch.a(arm_assert.o)
 .debug_aranges
                0x0000000000000a88       0x20 NuttX/nuttx/arch/arm/src/libarch.a(arm_blocktask.o)
 .debug_aranges
                0x0000000000000aa8       0x20 NuttX/nuttx/arch/arm/src/libarch.a(arm_copyfullstate.o)
 .debug_aranges
                0x0000000000000ac8       0x20 NuttX/nuttx/arch/arm/src/libarch.a(arm_createstack.o)
 .debug_aranges
                0x0000000000000ae8       0x20 NuttX/nuttx/arch/arm/src/libarch.a(arm_exit.o)
 .debug_aranges
                0x0000000000000b08       0x20 NuttX/nuttx/arch/arm/src/libarch.a(arm_initialize.o)
 .debug_aranges
                0x0000000000000b28       0x20 NuttX/nuttx/arch/arm/src/libarch.a(arm_initialstate.o)
 .debug_aranges
                0x0000000000000b48       0x20 NuttX/nuttx/arch/arm/src/libarch.a(arm_interruptcontext.o)
 .debug_aranges
                0x0000000000000b68       0x20 NuttX/nuttx/arch/arm/src/libarch.a(arm_releasepending.o)
 .debug_aranges
                0x0000000000000b88       0x20 NuttX/nuttx/arch/arm/src/libarch.a(arm_releasestack.o)
 .debug_aranges
                0x0000000000000ba8       0x20 NuttX/nuttx/arch/arm/src/libarch.a(arm_schedulesigaction.o)
 .debug_aranges
                0x0000000000000bc8       0x20 NuttX/nuttx/arch/arm/src/libarch.a(arm_sigdeliver.o)
 .debug_aranges
                0x0000000000000be8       0x20 NuttX/nuttx/arch/arm/src/libarch.a(arm_stackframe.o)
 .debug_aranges
                0x0000000000000c08       0x20 NuttX/nuttx/arch/arm/src/libarch.a(arm_unblocktask.o)
 .debug_aranges
                0x0000000000000c28       0x20 NuttX/nuttx/arch/arm/src/libarch.a(arm_usestack.o)
 .debug_aranges
                0x0000000000000c48       0x20 NuttX/nuttx/arch/arm/src/libarch.a(arm_idle.o)
 .debug_aranges
                0x0000000000000c68       0x50 NuttX/nuttx/arch/arm/src/libarch.a(arm_checkstack.o)
 .debug_aranges
                0x0000000000000cb8       0x20 NuttX/nuttx/arch/arm/src/libarch.a(arm_fullcontextrestore.o)
 .debug_aranges
                0x0000000000000cd8       0x20 NuttX/nuttx/arch/arm/src/libarch.a(arm_switchcontext.o)
 .debug_aranges
                0x0000000000000cf8       0xb0 NuttX/nuttx/arch/arm/src/libarch.a(stm32_serial.o)
 .debug_aranges
                0x0000000000000da8      0x150 NuttX/nuttx/arch/arm/src/libarch.a(stm32_otgdev.o)
 .debug_aranges
                0x0000000000000ef8       0x20 NuttX/nuttx/arch/arm/src/libarch.a(arm_mdelay.o)
 .debug_aranges
                0x0000000000000f18       0x20 NuttX/nuttx/mm/libmm.a(umm_initialize.o)
 .debug_aranges
                0x0000000000000f38       0x20 NuttX/nuttx/mm/libmm.a(umm_free.o)
 .debug_aranges
                0x0000000000000f58       0x20 NuttX/nuttx/mm/libmm.a(umm_malloc.o)
 .debug_aranges
                0x0000000000000f78       0x20 NuttX/nuttx/mm/libmm.a(umm_memalign.o)
 .debug_aranges
                0x0000000000000f98       0x20 NuttX/nuttx/mm/libmm.a(umm_zalloc.o)
 .debug_aranges
                0x0000000000000fb8       0x28 NuttX/nuttx/mm/libmm.a(mm_initialize.o)
 .debug_aranges
                0x0000000000000fe0       0x30 NuttX/nuttx/mm/libmm.a(mm_sem.o)
 .debug_aranges
                0x0000000000001010       0x20 NuttX/nuttx/mm/libmm.a(mm_addfreechunk.o)
 .debug_aranges
                0x0000000000001030       0x20 NuttX/nuttx/mm/libmm.a(mm_size2ndx.o)
 .debug_aranges
                0x0000000000001050       0x20 NuttX/nuttx/mm/libmm.a(mm_free.o)
 .debug_aranges
                0x0000000000001070       0x20 NuttX/nuttx/mm/libmm.a(mm_malloc.o)
 .debug_aranges
                0x0000000000001090       0x20 NuttX/nuttx/mm/libmm.a(mm_memalign.o)
 .debug_aranges
                0x00000000000010b0       0x20 NuttX/nuttx/mm/libmm.a(mm_zalloc.o)
 .debug_aranges
                0x00000000000010d0       0x18 NuttX/nuttx/mm/libmm.a(umm_globals.o)
 .debug_aranges
                0x00000000000010e8       0x20 NuttX/nuttx/mm/libmm.a(mm_shrinkchunk.o)
 .debug_aranges
                0x0000000000001108       0x20 NuttX/nuttx/libs/libc/libc.a(lib_errno.o)
 .debug_aranges
                0x0000000000001128       0x28 NuttX/nuttx/libs/libc/libc.a(lib_stream.o)
 .debug_aranges
                0x0000000000001150       0x30 NuttX/nuttx/libs/libc/libc.a(lib_filesem.o)
 .debug_aranges
                0x0000000000001180       0x20 NuttX/nuttx/libs/libc/libc.a(sq_addlast.o)
 .debug_aranges
                0x00000000000011a0       0x20 NuttX/nuttx/libs/libc/libc.a(sq_rem.o)
 .debug_aranges
                0x00000000000011c0       0x20 NuttX/nuttx/libs/libc/libc.a(sq_remfirst.o)
 .debug_aranges
                0x00000000000011e0       0x20 NuttX/nuttx/libs/libc/libc.a(sq_remafter.o)
 .debug_aranges
                0x0000000000001200       0x20 NuttX/nuttx/libs/libc/libc.a(dq_addlast.o)
 .debug_aranges
                0x0000000000001220       0x20 NuttX/nuttx/libs/libc/libc.a(dq_addfirst.o)
 .debug_aranges
                0x0000000000001240       0x20 NuttX/nuttx/libs/libc/libc.a(dq_rem.o)
 .debug_aranges
                0x0000000000001260       0x20 NuttX/nuttx/libs/libc/libc.a(task_startup.o)
 .debug_aranges
                0x0000000000001280       0x28 NuttX/nuttx/libs/libc/libc.a(sem_init.o)
 .debug_aranges
                0x00000000000012a8       0x28 NuttX/nuttx/libs/libc/libc.a(sig_addset.o)
 .debug_aranges
                0x00000000000012d0       0x28 NuttX/nuttx/libs/libc/libc.a(sig_delset.o)
 .debug_aranges
                0x00000000000012f8       0x20 NuttX/nuttx/libs/libc/libc.a(sig_emptyset.o)
 .debug_aranges
                0x0000000000001318       0x28 NuttX/nuttx/libs/libc/libc.a(sig_ismember.o)
 .debug_aranges
                0x0000000000001340       0x20 NuttX/nuttx/libs/libc/libc.a(lib_printf.o)
 .debug_aranges
                0x0000000000001360       0x20 NuttX/nuttx/libs/libc/libc.a(lib_libflushall.o)
 .debug_aranges
                0x0000000000001380       0x20 NuttX/nuttx/libs/libc/libc.a(lib_libfflush.o)
 .debug_aranges
                0x00000000000013a0       0x20 NuttX/nuttx/libs/libc/libc.a(lib_vfprintf.o)
 .debug_aranges
                0x00000000000013c0       0x30 NuttX/nuttx/libs/libc/libc.a(lib_stdoutstream.o)
 .debug_aranges
                0x00000000000013f0       0x20 NuttX/nuttx/libs/libc/libc.a(lib_memset.o)
 .debug_aranges
                0x0000000000001410       0x20 NuttX/nuttx/libs/libc/libc.a(lib_strcpy.o)
 .debug_aranges
                0x0000000000001430       0x20 NuttX/nuttx/libs/libc/libc.a(lib_strlen.o)
 .debug_aranges
                0x0000000000001450       0x20 NuttX/nuttx/libs/libc/libc.a(lib_strncpy.o)
 .debug_aranges
                0x0000000000001470       0x28 NuttX/nuttx/libs/libc/libc.a(lib_cfspeed.o)
 .debug_aranges
                0x0000000000001498       0x20 NuttX/nuttx/libs/libc/libc.a(tls_getinfo.o)
 .debug_aranges
                0x00000000000014b8       0x28 NuttX/nuttx/libs/libc/libc.a(lib_streamsem.o)
 .debug_aranges
                0x00000000000014e0       0x20 NuttX/nuttx/libs/libc/libc.a(lib_libnoflush.o)
 .debug_aranges
                0x0000000000001500       0x20 NuttX/nuttx/libs/libc/libc.a(lib_libvsprintf.o)
 .debug_aranges
                0x0000000000001520       0x20 NuttX/nuttx/libs/libc/libc.a(lib_ultoa_invert.o)
 .debug_aranges
                0x0000000000001540       0x20 NuttX/nuttx/libs/libc/libc.a(lib_dtoa_engine.o)
 .debug_aranges
                0x0000000000001560       0x18 NuttX/nuttx/libs/libc/libc.a(lib_dtoa_data.o)
 .debug_aranges
                0x0000000000001578       0x20 NuttX/nuttx/libs/libc/libc.a(lib_fputc.o)
 .debug_aranges
                0x0000000000001598       0x20 NuttX/nuttx/libs/libc/libc.a(lib_strnlen.o)
 .debug_aranges
                0x00000000000015b8       0x20 NuttX/nuttx/libs/libc/libc.a(lib_libfwrite.o)
 .debug_aranges
                0x00000000000015d8       0x20 NuttX/nuttx/libs/libc/libc.a(lib_rdflush.o)
 .debug_aranges
                0x00000000000015f8       0x20 NuttX/nuttx/libs/libc/libc.a(lib_fseek.o)
 .debug_aranges
                0x0000000000001618       0x20 NuttX/nuttx/libs/libc/libc.a(lib_wrflush.o)
 .debug_aranges
                0x0000000000001638       0x78 platforms/nuttx/src/bootloader/common/libbootloader.a(bl.c.obj)
 .debug_aranges
                0x00000000000016b0       0x38 platforms/nuttx/src/bootloader/common/lib/libbootloader_lib.a(cdcacm.c.obj)
 .debug_aranges
                0x00000000000016e8       0x38 platforms/nuttx/src/bootloader/common/lib/libbootloader_lib.a(uart.c.obj)
 .debug_aranges
                0x0000000000001720       0x20 NuttX/nuttx/boards/libboards.a(boardctl.o)
 .debug_aranges
                0x0000000000001740       0x90 NuttX/nuttx/drivers/libdrivers.a(serial.o)
 .debug_aranges
                0x00000000000017d0       0x28 NuttX/nuttx/drivers/libdrivers.a(serial_io.o)
 .debug_aranges
                0x00000000000017f8       0x20 NuttX/nuttx/drivers/libdrivers.a(syslog_flush.o)
 .debug_aranges
                0x0000000000001818       0x20 NuttX/nuttx/drivers/libdrivers.a(syslog_initialize.o)
 .debug_aranges
                0x0000000000001838      0x100 NuttX/nuttx/drivers/libdrivers.a(cdcacm.o)
 .debug_aranges
                0x0000000000001938       0x38 NuttX/nuttx/drivers/libdrivers.a(cdcacm_desc.o)
 .debug_aranges
                0x0000000000001970       0x38 NuttX/nuttx/drivers/libdrivers.a(dev_null.o)
 .debug_aranges
                0x00000000000019a8       0x38 NuttX/nuttx/drivers/libdrivers.a(syslog_channel.o)
 .debug_aranges
                0x00000000000019e0       0x20 NuttX/nuttx/fs/libfs.a(fs_initialize.o)
 .debug_aranges
                0x0000000000001a00       0x68 NuttX/nuttx/fs/libfs.a(fs_files.o)
 .debug_aranges
                0x0000000000001a68       0x30 NuttX/nuttx/fs/libfs.a(fs_inode.o)
 .debug_aranges
                0x0000000000001a98       0x30 NuttX/nuttx/fs/libfs.a(fs_inodereserve.o)
 .debug_aranges
                0x0000000000001ac8       0x28 NuttX/nuttx/fs/libfs.a(fs_inodesearch.o)
 .debug_aranges
                0x0000000000001af0       0x20 NuttX/nuttx/fs/libfs.a(fs_close.o)
 .debug_aranges
                0x0000000000001b10       0x20 NuttX/nuttx/fs/libfs.a(fs_dup2.o)
 .debug_aranges
                0x0000000000001b30       0x30 NuttX/nuttx/fs/libfs.a(fs_lseek.o)
 .debug_aranges
                0x0000000000001b60       0x48 NuttX/nuttx/fs/libfs.a(fs_open.o)
 .debug_aranges
                0x0000000000001ba8       0x30 NuttX/nuttx/fs/libfs.a(fs_read.o)
 .debug_aranges
                0x0000000000001bd8       0x30 NuttX/nuttx/fs/libfs.a(fs_write.o)
 .debug_aranges
                0x0000000000001c08       0x20 NuttX/nuttx/fs/libfs.a(fs_fdopen.o)
 .debug_aranges
                0x0000000000001c28       0x20 NuttX/nuttx/fs/libfs.a(fs_registerdriver.o)
 .debug_aranges
                0x0000000000001c48       0x20 NuttX/nuttx/fs/libfs.a(fs_unregisterdriver.o)
 .debug_aranges
                0x0000000000001c68       0x20 NuttX/nuttx/fs/libfs.a(fs_inodeaddref.o)
 .debug_aranges
                0x0000000000001c88       0x20 NuttX/nuttx/fs/libfs.a(fs_inodefind.o)
 .debug_aranges
                0x0000000000001ca8       0x20 NuttX/nuttx/fs/libfs.a(fs_inoderelease.o)
 .debug_aranges
                0x0000000000001cc8       0x28 NuttX/nuttx/fs/libfs.a(fs_inoderemove.o)
 .debug_aranges
                0x0000000000001cf0       0x20 NuttX/nuttx/fs/libfs.a(fs_inodefree.o)
 .debug_aranges
                0x0000000000001d10       0x30 NuttX/nuttx/sched/libsched.a(clock_initialize.o)
 .debug_aranges
                0x0000000000001d40       0x20 NuttX/nuttx/sched/libsched.a(sched_getfiles.o)
 .debug_aranges
                0x0000000000001d60       0x20 NuttX/nuttx/sched/libsched.a(sched_addreadytorun.o)
 .debug_aranges
                0x0000000000001d80       0x20 NuttX/nuttx/sched/libsched.a(sched_removereadytorun.o)
 .debug_aranges
                0x0000000000001da0       0x20 NuttX/nuttx/sched/libsched.a(sched_mergepending.o)
 .debug_aranges
                0x0000000000001dc0       0x20 NuttX/nuttx/sched/libsched.a(sched_getstreams.o)
 .debug_aranges
                0x0000000000001de0       0x20 NuttX/nuttx/sched/libsched.a(sched_idletask.o)
 .debug_aranges
                0x0000000000001e00       0x20 NuttX/nuttx/sched/libsched.a(sched_self.o)
 .debug_aranges
                0x0000000000001e20       0x20 NuttX/nuttx/sched/libsched.a(sched_get_stackinfo.o)
 .debug_aranges
                0x0000000000001e40       0x30 NuttX/nuttx/sched/libsched.a(sem_wait.o)
 .debug_aranges
                0x0000000000001e70       0x28 NuttX/nuttx/sched/libsched.a(sem_trywait.o)
 .debug_aranges
                0x0000000000001e98       0x28 NuttX/nuttx/sched/libsched.a(sem_post.o)
 .debug_aranges
                0x0000000000001ec0       0x20 NuttX/nuttx/sched/libsched.a(sem_reset.o)
 .debug_aranges
                0x0000000000001ee0       0x28 NuttX/nuttx/sched/libsched.a(sig_kill.o)
 .debug_aranges
                0x0000000000001f08       0x20 NuttX/nuttx/sched/libsched.a(sig_usleep.o)
 .debug_aranges
                0x0000000000001f28       0x20 NuttX/nuttx/sched/libsched.a(task_exit.o)
 .debug_aranges
                0x0000000000001f48       0x20 NuttX/nuttx/sched/libsched.a(task_getpid.o)
 .debug_aranges
                0x0000000000001f68       0x20 NuttX/nuttx/sched/libsched.a(task_terminate.o)
 .debug_aranges
                0x0000000000001f88       0x28 NuttX/nuttx/sched/libsched.a(wd_start.o)
 .debug_aranges
                0x0000000000001fb0       0x28 NuttX/nuttx/sched/libsched.a(sig_nanosleep.o)
 .debug_aranges
                0x0000000000001fd8       0x30 NuttX/nuttx/sched/libsched.a(sig_timedwait.o)
 .debug_aranges
                0x0000000000002008       0x28 NuttX/nuttx/arch/arm/src/libarch.a(stm32_timerisr.o)
 .debug_aranges
                0x0000000000002030       0x20 NuttX/nuttx/mm/libmm.a(umm_realloc.o)
 .debug_aranges
                0x0000000000002050       0x20 NuttX/nuttx/mm/libmm.a(mm_realloc.o)
 .debug_aranges
                0x0000000000002070       0x28 NuttX/nuttx/libs/libc/libc.a(lib_umask.o)
 .debug_aranges
                0x0000000000002098       0x20 NuttX/nuttx/libs/libc/libc.a(sq_addfirst.o)
 .debug_aranges
                0x00000000000020b8       0x20 NuttX/nuttx/libs/libc/libc.a(sq_addafter.o)
 .debug_aranges
                0x00000000000020d8       0x20 NuttX/nuttx/libs/libc/libc.a(clock_ticks2time.o)
 .debug_aranges
                0x00000000000020f8       0x20 NuttX/nuttx/libs/libc/libc.a(clock_time2ticks.o)
 .debug_aranges
                0x0000000000002118       0x28 NuttX/nuttx/libs/libc/libc.a(sem_getvalue.o)
 .debug_aranges
                0x0000000000002140       0x28 NuttX/nuttx/libs/libc/libc.a(sem_setprotocol.o)
 .debug_aranges
                0x0000000000002168       0x20 NuttX/nuttx/libs/libc/libc.a(lib_asprintf.o)
 .debug_aranges
                0x0000000000002188       0x20 NuttX/nuttx/libs/libc/libc.a(lib_snprintf.o)
 .debug_aranges
                0x00000000000021a8       0x20 NuttX/nuttx/libs/libc/libc.a(lib_vasprintf.o)
 .debug_aranges
                0x00000000000021c8       0x28 NuttX/nuttx/libs/libc/libc.a(lib_memoutstream.o)
 .debug_aranges
                0x00000000000021f0       0x28 NuttX/nuttx/libs/libc/libc.a(lib_nulloutstream.o)
 .debug_aranges
                0x0000000000002218       0x20 NuttX/nuttx/libs/libc/libc.a(lib_atol.o)
 .debug_aranges
                0x0000000000002238       0x20 NuttX/nuttx/libs/libc/libc.a(lib_strtol.o)
 .debug_aranges
                0x0000000000002258       0x20 NuttX/nuttx/libs/libc/libc.a(lib_strtoul.o)
 .debug_aranges
                0x0000000000002278       0x20 NuttX/nuttx/libs/libc/libc.a(lib_checkbase.o)
 .debug_aranges
                0x0000000000002298       0x20 NuttX/nuttx/libs/libc/libc.a(lib_isbasedigit.o)
 .debug_aranges
                0x00000000000022b8       0x20 NuttX/nuttx/libs/libc/libc.a(lib_skipspace.o)
 .debug_aranges
                0x00000000000022d8       0x20 NuttX/nuttx/libs/libc/libc.a(lib_strdup.o)
 .debug_aranges
                0x00000000000022f8       0x20 NuttX/nuttx/libs/libc/libc.a(lib_strtok.o)
 .debug_aranges
                0x0000000000002318       0x20 NuttX/nuttx/libs/libc/libc.a(lib_strtokr.o)
 .debug_aranges
                0x0000000000002338       0x20 NuttX/nuttx/libs/libc/libc.a(lib_strchr.o)
 .debug_aranges
                0x0000000000002358       0x20 NuttX/nuttx/libs/libc/libc.a(lib_tcgetattr.o)
 .debug_aranges
                0x0000000000002378       0x20 NuttX/nuttx/libs/libc/libc.a(lib_tcsetattr.o)
 .debug_aranges
                0x0000000000002398       0x20 NuttX/nuttx/libs/libc/libc.a(task_getinfo.o)
 .debug_aranges
                0x00000000000023b8       0x20 NuttX/nuttx/libs/libc/libc.a(lib_isspace.o)
 .debug_aranges
                0x00000000000023d8       0x20 NuttX/nuttx/libs/libc/libc.a(lib_tcflush.o)
 .debug_aranges
                0x00000000000023f8       0x20 NuttX/nuttx/drivers/libdrivers.a(tcdrain.o)
 .debug_aranges
                0x0000000000002418       0x38 NuttX/nuttx/fs/libfs.a(fs_ioctl.o)
 .debug_aranges
                0x0000000000002450       0x20 NuttX/nuttx/fs/libfs.a(fs_inodegetpath.o)
 .debug_aranges
                0x0000000000002470       0x38 NuttX/nuttx/fs/libfs.a(fs_fcntl.o)
 .debug_aranges
                0x00000000000024a8       0x30 NuttX/nuttx/fs/libfs.a(fs_dup.o)
 .debug_aranges
                0x00000000000024d8       0x20 NuttX/nuttx/sched/libsched.a(sched_processtimer.o)
 .debug_aranges
                0x00000000000024f8       0x20 NuttX/nuttx/libs/libc/libc.a(lib_strcat.o)
 .debug_aranges
                0x0000000000002518       0xd0 platforms/nuttx/src/bootloader/stm/stm32h7/arch_bootloader/libarch_bootloader.a(main.c.obj)
 .debug_aranges
                0x00000000000025e8       0x50 platforms/nuttx/src/bootloader/stm/stm32h7/arch_bootloader/libarch_bootloader.a(systick.c.obj)
 .debug_aranges
                0x0000000000002638       0x28 platforms/nuttx/src/px4/stm/stm32h7/board_reset/libarch_board_reset.a(board_reset.cpp.obj)
 .debug_aranges
                0x0000000000002660       0x20 NuttX/nuttx/arch/arm/src/libarch.a(arm_systemreset.o)
 .debug_aranges
                0x0000000000002680       0xb8 NuttX/nuttx/arch/arm/src/libarch.a(stm32_flash.o)
 .debug_aranges
                0x0000000000002738       0x40 platforms/nuttx/src/bootloader/common/lib/libbootloader_lib.a(flash_cache.c.obj)
START GROUP
LOAD platforms/nuttx/src/bootloader/common/libbootloader.a
LOAD platforms/nuttx/src/bootloader/common/lib/libbootloader_lib.a
LOAD boards/hkust/nxt/src/libdrivers_board.a
LOAD NuttX/nuttx/boards/libboards.a
LOAD NuttX/nuttx/drivers/libdrivers.a
LOAD NuttX/nuttx/fs/libfs.a
LOAD NuttX/nuttx/sched/libsched.a
LOAD NuttX/nuttx/crypto/libcrypto.a
LOAD NuttX/nuttx/binfmt/libbinfmt.a
LOAD NuttX/nuttx/libs/libxx/libxx.a
LOAD NuttX/apps/libapps.a
LOAD NuttX/nuttx/arch/arm/src/libarch.a
LOAD NuttX/nuttx/mm/libmm.a
LOAD NuttX/nuttx/libs/libc/libc.a
END GROUP
LOAD /opt/gcc/bin/../lib/gcc/arm-none-eabi/9.3.1/../../../../arm-none-eabi/lib/thumb/v7e-m+dp/hard/libm.a
LOAD /opt/gcc/bin/../lib/gcc/arm-none-eabi/9.3.1/thumb/v7e-m+dp/hard/libgcc.a
LOAD platforms/nuttx/src/bootloader/stm/stm32h7/arch_bootloader/libarch_bootloader.a
LOAD platforms/nuttx/src/px4/stm/stm32h7/board_reset/libarch_board_reset.a
LOAD platforms/nuttx/src/bootloader/common/libbootloader.a
LOAD boards/hkust/nxt/src/libdrivers_board.a
LOAD NuttX/nuttx/arch/arm/src/libarch.a
LOAD platforms/nuttx/src/bootloader/stm/stm32h7/arch_bootloader/libarch_bootloader.a
LOAD platforms/nuttx/src/px4/stm/stm32h7/board_reset/libarch_board_reset.a
LOAD platforms/nuttx/src/px4/stm/stm32h7/hrt/libarch_hrt.a
LOAD platforms/nuttx/src/bootloader/common/lib/libbootloader_lib.a
LOAD NuttX/nuttx/libs/libxx/libxx.a
LOAD /opt/gcc/bin/../lib/gcc/arm-none-eabi/9.3.1/../../../../arm-none-eabi/lib/thumb/v7e-m+dp/hard/libm.a
LOAD /opt/gcc/bin/../lib/gcc/arm-none-eabi/9.3.1/thumb/v7e-m+dp/hard/libgcc.a
LOAD NuttX/nuttx/drivers/libdrivers.a
LOAD NuttX/nuttx/libs/libc/libc.a
LOAD NuttX/nuttx/drivers/libdrivers.a
LOAD NuttX/nuttx/libs/libc/libc.a
LOAD NuttX/nuttx/sched/libsched.a
OUTPUT(hkust_nxt_bootloader.elf elf32-littlearm)
LOAD linker stubs

.debug_str      0x0000000000000000     0x6a31
 .debug_str     0x0000000000000000      0x22b NuttX/nuttx/arch/arm/src/libarch.a(arm_vectors.o)
                                        0x26d (size before relaxing)
 .debug_str     0x000000000000022b       0x2a NuttX/nuttx/arch/arm/src/libarch.a(arm_exception.o)
                                         0x6d (size before relaxing)
 .debug_str     0x0000000000000255       0xc6 NuttX/nuttx/arch/arm/src/libarch.a(stm32_start.o)
                                        0x32d (size before relaxing)
 .debug_str     0x000000000000031b      0x105 NuttX/nuttx/arch/arm/src/libarch.a(stm32_rcc.o)
                                        0x38d (size before relaxing)
 .debug_str     0x0000000000000420       0x21 NuttX/nuttx/arch/arm/src/libarch.a(stm32_lowputc.o)
                                        0x2af (size before relaxing)
 .debug_str     0x0000000000000441      0x192 NuttX/nuttx/arch/arm/src/libarch.a(stm32_pwr.o)
                                        0x40b (size before relaxing)
 .debug_str     0x00000000000005d3       0x41 NuttX/nuttx/arch/arm/src/libarch.a(arm_doirq.o)
                                        0x2c6 (size before relaxing)
 .debug_str     0x0000000000000614       0x19 NuttX/nuttx/arch/arm/src/libarch.a(arm_modifyreg32.o)
                                        0x282 (size before relaxing)
 .debug_str     0x000000000000062d       0x2c NuttX/nuttx/arch/arm/src/libarch.a(arm_udelay.o)
                                        0x22e (size before relaxing)
 .debug_str     0x0000000000000659       0x52 NuttX/nuttx/arch/arm/src/libarch.a(arm_cache.o)
                                        0x257 (size before relaxing)
 .debug_str     0x00000000000006ab       0x9e NuttX/nuttx/arch/arm/src/libarch.a(stm32_irq.o)
                                        0x354 (size before relaxing)
 .debug_str     0x0000000000000749       0x26 NuttX/nuttx/arch/arm/src/libarch.a(arm_hardfault.o)
                                        0x303 (size before relaxing)
 .debug_str     0x000000000000076f       0xd8 NuttX/nuttx/arch/arm/src/libarch.a(arm_svcall.o)
                                        0x373 (size before relaxing)
 .debug_str     0x0000000000000847       0x66 NuttX/nuttx/libs/libc/libc.a(arch_memcpy.o)
                                         0x74 (size before relaxing)
 .debug_str     0x00000000000008ad       0x25 NuttX/nuttx/libs/libc/libc.a(lib_assert.o)
                                        0x231 (size before relaxing)
 .debug_str     0x00000000000008d2       0x19 NuttX/nuttx/libs/libc/libc.a(lib_abort.o)
                                        0x1dd (size before relaxing)
 .debug_str     0x00000000000008eb      0x282 boards/hkust/nxt/src/libdrivers_board.a(bootloader_main.c.obj)
                                        0x3f6 (size before relaxing)
 .debug_str     0x0000000000000b6d       0xdb boards/hkust/nxt/src/libdrivers_board.a(usb.c.obj)
                                        0x49f (size before relaxing)
 .debug_str     0x0000000000000c48      0x96d NuttX/nuttx/sched/libsched.a(nx_start.o)
                                        0xd5d (size before relaxing)
 .debug_str     0x00000000000015b5       0x6c NuttX/nuttx/sched/libsched.a(nx_bringup.o)
                                        0x2b0 (size before relaxing)
 .debug_str     0x0000000000001621       0x11 NuttX/nuttx/sched/libsched.a(irq_attach.o)
                                        0x2b8 (size before relaxing)
 .debug_str     0x0000000000001632       0x13 NuttX/nuttx/sched/libsched.a(irq_dispatch.o)
                                        0x95b (size before relaxing)
 .debug_str     0x0000000000001645       0x2b NuttX/nuttx/sched/libsched.a(irq_unexpectedisr.o)
                                        0x2a8 (size before relaxing)
 .debug_str     0x0000000000001670       0x2d NuttX/nuttx/sched/libsched.a(sched_lock.o)
                                        0x91a (size before relaxing)
 .debug_str     0x000000000000169d       0x28 NuttX/nuttx/sched/libsched.a(sched_unlock.o)
                                        0x9b0 (size before relaxing)
 .debug_str     0x00000000000016c5       0x71 NuttX/nuttx/sched/libsched.a(task_create.o)
                                        0x9ac (size before relaxing)
 .debug_str     0x0000000000001736       0xc9 NuttX/nuttx/sched/libsched.a(task_init.o)
                                        0xad1 (size before relaxing)
 .debug_str     0x00000000000017ff       0xc7 NuttX/nuttx/sched/libsched.a(task_setup.o)
                                        0xb69 (size before relaxing)
 .debug_str     0x00000000000018c6       0x25 NuttX/nuttx/sched/libsched.a(task_activate.o)
                                        0x878 (size before relaxing)
 .debug_str     0x00000000000018eb       0x50 NuttX/nuttx/sched/libsched.a(task_start.o)
                                        0x9a8 (size before relaxing)
 .debug_str     0x000000000000193b       0x24 NuttX/nuttx/sched/libsched.a(exit.o)
                                        0x912 (size before relaxing)
 .debug_str     0x000000000000195f       0x52 NuttX/nuttx/sched/libsched.a(group_create.o)
                                        0xa1a (size before relaxing)
 .debug_str     0x00000000000019b1       0x69 NuttX/nuttx/sched/libsched.a(group_leave.o)
                                        0x8f1 (size before relaxing)
 .debug_str     0x0000000000001a1a       0x3f NuttX/nuttx/sched/libsched.a(group_setupidlefiles.o)
                                        0x861 (size before relaxing)
 .debug_str     0x0000000000001a59       0x1d NuttX/nuttx/sched/libsched.a(group_setuptaskfiles.o)
                                        0x940 (size before relaxing)
 .debug_str     0x0000000000001a76       0x15 NuttX/nuttx/sched/libsched.a(irq_initialize.o)
                                        0x24c (size before relaxing)
 .debug_str     0x0000000000001a8b       0x2c NuttX/nuttx/sched/libsched.a(sched_releasetcb.o)
                                        0x9c7 (size before relaxing)
 .debug_str     0x0000000000001ab7       0x18 NuttX/nuttx/sched/libsched.a(sem_destroy.o)
                                        0x257 (size before relaxing)
 .debug_str     0x0000000000001acf       0x36 NuttX/nuttx/sched/libsched.a(sig_procmask.o)
                                        0xa07 (size before relaxing)
 .debug_str     0x0000000000001b05       0xc0 NuttX/nuttx/sched/libsched.a(sig_unmaskpendingsignal.o)
                                        0xa4c (size before relaxing)
 .debug_str     0x0000000000001bc5       0x4e NuttX/nuttx/sched/libsched.a(sig_removependingsignal.o)
                                        0x945 (size before relaxing)
 .debug_str     0x0000000000001c13       0x6c NuttX/nuttx/sched/libsched.a(sig_releasependingsignal.o)
                                        0x40d (size before relaxing)
 .debug_str     0x0000000000001c7f       0x23 NuttX/nuttx/sched/libsched.a(sig_lowest.o)
                                        0x2e7 (size before relaxing)
 .debug_str     0x0000000000001ca2       0xdc NuttX/nuttx/sched/libsched.a(sig_cleanup.o)
                                        0x9b8 (size before relaxing)
 .debug_str     0x0000000000001d7e       0xff NuttX/nuttx/sched/libsched.a(sig_dispatch.o)
                                        0xcf0 (size before relaxing)
 .debug_str     0x0000000000001e7d       0x58 NuttX/nuttx/sched/libsched.a(sig_deliver.o)
                                        0x99a (size before relaxing)
 .debug_str     0x0000000000001ed5      0x127 NuttX/nuttx/sched/libsched.a(sig_default.o)
                                        0xc42 (size before relaxing)
 .debug_str     0x0000000000001ffc       0x51 NuttX/nuttx/sched/libsched.a(task_exithook.o)
                                        0x9c0 (size before relaxing)
 .debug_str     0x000000000000204d       0x2d NuttX/nuttx/sched/libsched.a(task_recover.o)
                                        0x947 (size before relaxing)
 .debug_str     0x000000000000207a       0x7e NuttX/nuttx/sched/libsched.a(task_cancelpt.o)
                                        0xa54 (size before relaxing)
 .debug_str     0x00000000000020f8       0x1c NuttX/nuttx/sched/libsched.a(wd_recover.o)
                                        0x820 (size before relaxing)
 .debug_str     0x0000000000002114       0x3b NuttX/nuttx/sched/libsched.a(group_setupstreams.o)
                                        0x861 (size before relaxing)
 .debug_str     0x000000000000214f       0x15 NuttX/nuttx/sched/libsched.a(sched_gettcb.o)
                                        0x963 (size before relaxing)
 .debug_str     0x0000000000002164       0x4f NuttX/nuttx/sched/libsched.a(sched_suspend.o)
                                        0xa49 (size before relaxing)
 .debug_str     0x00000000000021b3       0x17 NuttX/nuttx/sched/libsched.a(sched_continue.o)
                                        0xa22 (size before relaxing)
 .debug_str     0x00000000000021ca       0x18 NuttX/nuttx/sched/libsched.a(sem_recover.o)
                                        0x91e (size before relaxing)
 .debug_str     0x00000000000021e2       0x1d NuttX/nuttx/sched/libsched.a(sem_waitirq.o)
                                        0x934 (size before relaxing)
 .debug_str     0x00000000000021ff      0x105 NuttX/nuttx/sched/libsched.a(sig_initialize.o)
                                        0x545 (size before relaxing)
 .debug_str     0x0000000000002304       0x2c NuttX/nuttx/sched/libsched.a(sig_action.o)
                                        0xa9c (size before relaxing)
 .debug_str     0x0000000000002330       0x2b NuttX/nuttx/sched/libsched.a(sig_pending.o)
                                        0xa16 (size before relaxing)
 .debug_str     0x000000000000235b       0x18 NuttX/nuttx/sched/libsched.a(sig_findaction.o)
                                        0x782 (size before relaxing)
 .debug_str     0x0000000000002373       0x23 NuttX/nuttx/sched/libsched.a(sig_allocpendingsigaction.o)
                                        0x43e (size before relaxing)
 .debug_str     0x0000000000002396       0x25 NuttX/nuttx/sched/libsched.a(sig_releasependingsigaction.o)
                                        0x42a (size before relaxing)
 .debug_str     0x00000000000023bb       0x1b NuttX/nuttx/sched/libsched.a(wd_cancel.o)
                                        0x98c (size before relaxing)
 .debug_str     0x00000000000023d6       0x4a NuttX/nuttx/sched/libsched.a(sched_addblocked.o)
                                        0x9f8 (size before relaxing)
 .debug_str     0x0000000000002420       0x1c NuttX/nuttx/sched/libsched.a(sched_removeblocked.o)
                                        0x9d9 (size before relaxing)
 .debug_str     0x000000000000243c       0x15 NuttX/nuttx/sched/libsched.a(wd_initialize.o)
                                        0x24d (size before relaxing)
 .debug_str     0x0000000000002451       0x1d NuttX/nuttx/sched/libsched.a(sched_addprioritized.o)
                                        0x916 (size before relaxing)
 .debug_str     0x000000000000246e      0x155 NuttX/apps/libapps.a(cdcacm_main.c.src.NxtPX4.PX4-Autopilot.platforms.nuttx.NuttX.apps.system.cdcacm.o)
                                        0x364 (size before relaxing)
 .debug_str     0x00000000000025c3       0x2c NuttX/nuttx/arch/arm/src/libarch.a(stm32_allocateheap.o)
                                        0x2ec (size before relaxing)
 .debug_str     0x00000000000025ef       0x8a NuttX/nuttx/arch/arm/src/libarch.a(stm32_gpio.o)
                                        0x325 (size before relaxing)
 .debug_str     0x0000000000002679       0x40 NuttX/nuttx/arch/arm/src/libarch.a(arm_assert.o)
                                        0xa26 (size before relaxing)
 .debug_str     0x00000000000026b9       0x82 NuttX/nuttx/arch/arm/src/libarch.a(arm_blocktask.o)
                                        0xab7 (size before relaxing)
 .debug_str     0x000000000000273b       0x1c NuttX/nuttx/arch/arm/src/libarch.a(arm_copyfullstate.o)
                                        0x281 (size before relaxing)
 .debug_str     0x0000000000002757       0x29 NuttX/nuttx/arch/arm/src/libarch.a(arm_createstack.o)
                                        0x976 (size before relaxing)
 .debug_str     0x0000000000002780       0x35 NuttX/nuttx/arch/arm/src/libarch.a(arm_exit.o)
                                        0x9f9 (size before relaxing)
 .debug_str     0x00000000000027b5       0xa7 NuttX/nuttx/arch/arm/src/libarch.a(arm_initialize.o)
                                        0x36f (size before relaxing)
 .debug_str     0x000000000000285c       0x1b NuttX/nuttx/arch/arm/src/libarch.a(arm_initialstate.o)
                                        0x8b2 (size before relaxing)
 .debug_str     0x0000000000002877       0x1e NuttX/nuttx/arch/arm/src/libarch.a(arm_interruptcontext.o)
                                        0x2aa (size before relaxing)
 .debug_str     0x0000000000002895       0x1d NuttX/nuttx/arch/arm/src/libarch.a(arm_releasepending.o)
                                        0x9c7 (size before relaxing)
 .debug_str     0x00000000000028b2       0x1f NuttX/nuttx/arch/arm/src/libarch.a(arm_releasestack.o)
                                        0x8ac (size before relaxing)
 .debug_str     0x00000000000028d1       0x2e NuttX/nuttx/arch/arm/src/libarch.a(arm_schedulesigaction.o)
                                        0x9cc (size before relaxing)
 .debug_str     0x00000000000028ff       0x34 NuttX/nuttx/arch/arm/src/libarch.a(arm_sigdeliver.o)
                                        0xa29 (size before relaxing)
 .debug_str     0x0000000000002933       0x23 NuttX/nuttx/arch/arm/src/libarch.a(arm_stackframe.o)
                                        0x8a8 (size before relaxing)
 .debug_str     0x0000000000002956       0x31 NuttX/nuttx/arch/arm/src/libarch.a(arm_unblocktask.o)
                                        0xab8 (size before relaxing)
 .debug_str     0x0000000000002987       0x16 NuttX/nuttx/arch/arm/src/libarch.a(arm_usestack.o)
                                        0x95e (size before relaxing)
 .debug_str     0x000000000000299d       0x12 NuttX/nuttx/arch/arm/src/libarch.a(arm_idle.o)
                                        0x291 (size before relaxing)
 .debug_str     0x00000000000029af       0xc0 NuttX/nuttx/arch/arm/src/libarch.a(arm_checkstack.o)
                                        0xa27 (size before relaxing)
 .debug_str     0x0000000000002a6f       0x25 NuttX/nuttx/arch/arm/src/libarch.a(arm_fullcontextrestore.o)
                                         0x76 (size before relaxing)
 .debug_str     0x0000000000002a94       0x20 NuttX/nuttx/arch/arm/src/libarch.a(arm_switchcontext.o)
                                         0x71 (size before relaxing)
 .debug_str     0x0000000000002ab4      0x342 NuttX/nuttx/arch/arm/src/libarch.a(stm32_serial.o)
                                        0x9d9 (size before relaxing)
 .debug_str     0x0000000000002df6      0x79b NuttX/nuttx/arch/arm/src/libarch.a(stm32_otgdev.o)
                                        0xd56 (size before relaxing)
 .debug_str     0x0000000000003591       0x21 NuttX/nuttx/arch/arm/src/libarch.a(arm_mdelay.o)
                                        0x223 (size before relaxing)
 .debug_str     0x00000000000035b2       0x53 NuttX/nuttx/mm/libmm.a(umm_initialize.o)
                                        0x25c (size before relaxing)
 .debug_str     0x0000000000003605       0x1c NuttX/nuttx/mm/libmm.a(umm_free.o)
                                        0x222 (size before relaxing)
 .debug_str     0x0000000000003621       0x20 NuttX/nuttx/mm/libmm.a(umm_malloc.o)
                                        0x23c (size before relaxing)
 .debug_str     0x0000000000003641       0x2e NuttX/nuttx/mm/libmm.a(umm_memalign.o)
                                        0x24c (size before relaxing)
 .debug_str     0x000000000000366f       0x20 NuttX/nuttx/mm/libmm.a(umm_zalloc.o)
                                        0x23c (size before relaxing)
 .debug_str     0x000000000000368f      0x103 NuttX/nuttx/mm/libmm.a(mm_initialize.o)
                                        0x3a4 (size before relaxing)
 .debug_str     0x0000000000003792       0x27 NuttX/nuttx/mm/libmm.a(mm_sem.o)
                                        0x373 (size before relaxing)
 .debug_str     0x00000000000037b9       0x26 NuttX/nuttx/mm/libmm.a(mm_addfreechunk.o)
                                        0x31a (size before relaxing)
 .debug_str     0x00000000000037df       0x16 NuttX/nuttx/mm/libmm.a(mm_size2ndx.o)
                                        0x2f2 (size before relaxing)
 .debug_str     0x00000000000037f5       0x2d NuttX/nuttx/mm/libmm.a(mm_free.o)
                                        0x3bb (size before relaxing)
 .debug_str     0x0000000000003822       0x44 NuttX/nuttx/mm/libmm.a(mm_malloc.o)
                                        0x3eb (size before relaxing)
 .debug_str     0x0000000000003866       0x63 NuttX/nuttx/mm/libmm.a(mm_memalign.o)
                                        0x399 (size before relaxing)
 .debug_str     0x00000000000038c9       0x14 NuttX/nuttx/mm/libmm.a(mm_zalloc.o)
                                        0x230 (size before relaxing)
 .debug_str     0x00000000000038dd       0x17 NuttX/nuttx/mm/libmm.a(umm_globals.o)
                                        0x218 (size before relaxing)
 .debug_str     0x00000000000038f4       0x19 NuttX/nuttx/mm/libmm.a(mm_shrinkchunk.o)
                                        0x329 (size before relaxing)
 .debug_str     0x000000000000390d       0x27 NuttX/nuttx/libs/libc/libc.a(lib_errno.o)
                                        0x336 (size before relaxing)
 .debug_str     0x0000000000003934       0x25 NuttX/nuttx/libs/libc/libc.a(lib_stream.o)
                                        0x68f (size before relaxing)
 .debug_str     0x0000000000003959       0x40 NuttX/nuttx/libs/libc/libc.a(lib_filesem.o)
                                        0x36a (size before relaxing)
 .debug_str     0x0000000000003999       0x19 NuttX/nuttx/libs/libc/libc.a(sq_addlast.o)
                                        0x21e (size before relaxing)
 .debug_str     0x00000000000039b2        0xf NuttX/nuttx/libs/libc/libc.a(sq_rem.o)
                                        0x227 (size before relaxing)
 .debug_str     0x00000000000039c1       0x14 NuttX/nuttx/libs/libc/libc.a(sq_remfirst.o)
                                        0x21b (size before relaxing)
 .debug_str     0x00000000000039d5       0x14 NuttX/nuttx/libs/libc/libc.a(sq_remafter.o)
                                        0x220 (size before relaxing)
 .debug_str     0x00000000000039e9       0x13 NuttX/nuttx/libs/libc/libc.a(dq_addlast.o)
                                        0x224 (size before relaxing)
 .debug_str     0x00000000000039fc       0x14 NuttX/nuttx/libs/libc/libc.a(dq_addfirst.o)
                                        0x226 (size before relaxing)
 .debug_str     0x0000000000003a10        0xf NuttX/nuttx/libs/libc/libc.a(dq_rem.o)
                                        0x226 (size before relaxing)
 .debug_str     0x0000000000003a1f       0x61 NuttX/nuttx/libs/libc/libc.a(task_startup.o)
                                        0x26b (size before relaxing)
 .debug_str     0x0000000000003a80       0x1d NuttX/nuttx/libs/libc/libc.a(sem_init.o)
                                        0x24e (size before relaxing)
 .debug_str     0x0000000000003a9d       0x1e NuttX/nuttx/libs/libc/libc.a(sig_addset.o)
                                        0x214 (size before relaxing)
 .debug_str     0x0000000000003abb       0x1e NuttX/nuttx/libs/libc/libc.a(sig_delset.o)
                                        0x214 (size before relaxing)
 .debug_str     0x0000000000003ad9       0x16 NuttX/nuttx/libs/libc/libc.a(sig_emptyset.o)
                                        0x1fd (size before relaxing)
 .debug_str     0x0000000000003aef       0x22 NuttX/nuttx/libs/libc/libc.a(sig_ismember.o)
                                        0x231 (size before relaxing)
 .debug_str     0x0000000000003b11       0x4e NuttX/nuttx/libs/libc/libc.a(lib_printf.o)
                                        0x252 (size before relaxing)
 .debug_str     0x0000000000003b5f       0x4b NuttX/nuttx/libs/libc/libc.a(lib_libflushall.o)
                                        0x386 (size before relaxing)
 .debug_str     0x0000000000003baa       0x43 NuttX/nuttx/libs/libc/libc.a(lib_libfflush.o)
                                        0x38d (size before relaxing)
 .debug_str     0x0000000000003bed       0x74 NuttX/nuttx/libs/libc/libc.a(lib_vfprintf.o)
                                        0x3e1 (size before relaxing)
 .debug_str     0x0000000000003c61       0x4a NuttX/nuttx/libs/libc/libc.a(lib_stdoutstream.o)
                                        0x3ca (size before relaxing)
 .debug_str     0x0000000000003cab       0x30 NuttX/nuttx/libs/libc/libc.a(lib_memset.o)
                                        0x25a (size before relaxing)
 .debug_str     0x0000000000003cdb       0x14 NuttX/nuttx/libs/libc/libc.a(lib_strcpy.o)
                                        0x1e5 (size before relaxing)
 .debug_str     0x0000000000003cef       0x14 NuttX/nuttx/libs/libc/libc.a(lib_strlen.o)
                                        0x1ef (size before relaxing)
 .debug_str     0x0000000000003d03       0x15 NuttX/nuttx/libs/libc/libc.a(lib_strncpy.o)
                                        0x1f6 (size before relaxing)
 .debug_str     0x0000000000003d18       0x2b NuttX/nuttx/libs/libc/libc.a(lib_cfspeed.o)
                                        0x26e (size before relaxing)
 .debug_str     0x0000000000003d43       0x34 NuttX/nuttx/libs/libc/libc.a(tls_getinfo.o)
                                        0x38c (size before relaxing)
 .debug_str     0x0000000000003d77       0x15 NuttX/nuttx/libs/libc/libc.a(lib_streamsem.o)
                                        0x361 (size before relaxing)
 .debug_str     0x0000000000003d8c       0x23 NuttX/nuttx/libs/libc/libc.a(lib_libnoflush.o)
                                        0x268 (size before relaxing)
 .debug_str     0x0000000000003daf       0xe5 NuttX/nuttx/libs/libc/libc.a(lib_libvsprintf.o)
                                        0x3bd (size before relaxing)
 .debug_str     0x0000000000003e94       0x19 NuttX/nuttx/libs/libc/libc.a(lib_ultoa_invert.o)
                                        0x17f (size before relaxing)
 .debug_str     0x0000000000003ead      0x400 NuttX/nuttx/libs/libc/libc.a(lib_dtoa_engine.o)
                                        0x6b4 (size before relaxing)
 .debug_str     0x00000000000042ad       0x16 NuttX/nuttx/libs/libc/libc.a(lib_dtoa_data.o)
                                        0x205 (size before relaxing)
 .debug_str     0x00000000000042c3       0x1d NuttX/nuttx/libs/libc/libc.a(lib_fputc.o)
                                        0x328 (size before relaxing)
 .debug_str     0x00000000000042e0       0x1c NuttX/nuttx/libs/libc/libc.a(lib_strnlen.o)
                                        0x1f8 (size before relaxing)
 .debug_str     0x00000000000042fc       0x51 NuttX/nuttx/libs/libc/libc.a(lib_libfwrite.o)
                                        0x3dd (size before relaxing)
 .debug_str     0x000000000000434d       0x23 NuttX/nuttx/libs/libc/libc.a(lib_rdflush.o)
                                        0x374 (size before relaxing)
 .debug_str     0x0000000000004370       0x2b NuttX/nuttx/libs/libc/libc.a(lib_fseek.o)
                                        0x35b (size before relaxing)
 .debug_str     0x000000000000439b       0x14 NuttX/nuttx/libs/libc/libc.a(lib_wrflush.o)
                                        0x32b (size before relaxing)
 .debug_str     0x00000000000043af      0x31a platforms/nuttx/src/bootloader/common/libbootloader.a(bl.c.obj)
                                        0x646 (size before relaxing)
 .debug_str     0x00000000000046c9       0x60 platforms/nuttx/src/bootloader/common/lib/libbootloader_lib.a(cdcacm.c.obj)
                                        0x312 (size before relaxing)
 .debug_str     0x0000000000004729       0x5a platforms/nuttx/src/bootloader/common/lib/libbootloader_lib.a(uart.c.obj)
                                        0x38d (size before relaxing)
 .debug_str     0x0000000000004783       0x82 NuttX/nuttx/boards/libboards.a(boardctl.o)
                                        0x383 (size before relaxing)
 .debug_str     0x0000000000004805      0x1ca NuttX/nuttx/drivers/libdrivers.a(serial.o)
                                        0x884 (size before relaxing)
 .debug_str     0x00000000000049cf       0x26 NuttX/nuttx/drivers/libdrivers.a(serial_io.o)
                                        0x60e (size before relaxing)
 .debug_str     0x00000000000049f5       0xbb NuttX/nuttx/drivers/libdrivers.a(syslog_flush.o)
                                        0x2a5 (size before relaxing)
 .debug_str     0x0000000000004ab0       0x1b NuttX/nuttx/drivers/libdrivers.a(syslog_initialize.o)
                                        0x2eb (size before relaxing)
 .debug_str     0x0000000000004acb      0x507 NuttX/nuttx/drivers/libdrivers.a(cdcacm.o)
                                        0xecb (size before relaxing)
 .debug_str     0x0000000000004fd2       0xff NuttX/nuttx/drivers/libdrivers.a(cdcacm_desc.o)
                                        0x44a (size before relaxing)
 .debug_str     0x00000000000050d1       0x40 NuttX/nuttx/drivers/libdrivers.a(dev_null.o)
                                        0x4f0 (size before relaxing)
 .debug_str     0x0000000000005111       0x94 NuttX/nuttx/drivers/libdrivers.a(syslog_channel.o)
                                        0x3c4 (size before relaxing)
 .debug_str     0x00000000000051a5       0x67 NuttX/nuttx/fs/libfs.a(fs_initialize.o)
                                        0x46f (size before relaxing)
 .debug_str     0x000000000000520c       0x9a NuttX/nuttx/fs/libfs.a(fs_files.o)
                                        0x5dd (size before relaxing)
 .debug_str     0x00000000000052a6       0x58 NuttX/nuttx/fs/libfs.a(fs_inode.o)
                                        0x50f (size before relaxing)
 .debug_str     0x00000000000052fe       0x9d NuttX/nuttx/fs/libfs.a(fs_inodereserve.o)
                                        0x556 (size before relaxing)
 .debug_str     0x000000000000539b       0x54 NuttX/nuttx/fs/libfs.a(fs_inodesearch.o)
                                        0x512 (size before relaxing)
 .debug_str     0x00000000000053ef       0x1d NuttX/nuttx/fs/libfs.a(fs_close.o)
                                        0x474 (size before relaxing)
 .debug_str     0x000000000000540c       0x29 NuttX/nuttx/fs/libfs.a(fs_dup2.o)
                                        0x497 (size before relaxing)
 .debug_str     0x0000000000005435       0x28 NuttX/nuttx/fs/libfs.a(fs_lseek.o)
                                        0x49c (size before relaxing)
 .debug_str     0x000000000000545d       0xef NuttX/nuttx/fs/libfs.a(fs_open.o)
                                        0x622 (size before relaxing)
 .debug_str     0x000000000000554c       0x20 NuttX/nuttx/fs/libfs.a(fs_read.o)
                                        0x487 (size before relaxing)
 .debug_str     0x000000000000556c       0x23 NuttX/nuttx/fs/libfs.a(fs_write.o)
                                        0x48a (size before relaxing)
 .debug_str     0x000000000000558f       0x2e NuttX/nuttx/fs/libfs.a(fs_fdopen.o)
                                        0x8b7 (size before relaxing)
 .debug_str     0x00000000000055bd       0x1b NuttX/nuttx/fs/libfs.a(fs_registerdriver.o)
                                        0x4b4 (size before relaxing)
 .debug_str     0x00000000000055d8       0x2a NuttX/nuttx/fs/libfs.a(fs_unregisterdriver.o)
                                        0x49d (size before relaxing)
 .debug_str     0x0000000000005602       0x17 NuttX/nuttx/fs/libfs.a(fs_inodeaddref.o)
                                        0x486 (size before relaxing)
 .debug_str     0x0000000000005619       0x15 NuttX/nuttx/fs/libfs.a(fs_inodefind.o)
                                        0x4cb (size before relaxing)
 .debug_str     0x000000000000562e       0x23 NuttX/nuttx/fs/libfs.a(fs_inoderelease.o)
                                        0x498 (size before relaxing)
 .debug_str     0x0000000000005651       0x24 NuttX/nuttx/fs/libfs.a(fs_inoderemove.o)
                                        0x4d6 (size before relaxing)
 .debug_str     0x0000000000005675       0x15 NuttX/nuttx/fs/libfs.a(fs_inodefree.o)
                                        0x46a (size before relaxing)
 .debug_str     0x000000000000568a       0x5b NuttX/nuttx/sched/libsched.a(clock_initialize.o)
                                        0x28d (size before relaxing)
 .debug_str     0x00000000000056e5       0x17 NuttX/nuttx/sched/libsched.a(sched_getfiles.o)
                                        0x90a (size before relaxing)
 .debug_str     0x00000000000056fc       0x1c NuttX/nuttx/sched/libsched.a(sched_addreadytorun.o)
                                        0xa0c (size before relaxing)
 .debug_str     0x0000000000005718       0x2f NuttX/nuttx/sched/libsched.a(sched_removereadytorun.o)
                                        0xa0c (size before relaxing)
 .debug_str     0x0000000000005747       0x2c NuttX/nuttx/sched/libsched.a(sched_mergepending.o)
                                        0x9fe (size before relaxing)
 .debug_str     0x0000000000005773       0x19 NuttX/nuttx/sched/libsched.a(sched_getstreams.o)
                                        0x90e (size before relaxing)
 .debug_str     0x000000000000578c       0x17 NuttX/nuttx/sched/libsched.a(sched_idletask.o)
                                        0x97e (size before relaxing)
 .debug_str     0x00000000000057a3       0x13 NuttX/nuttx/sched/libsched.a(sched_self.o)
                                        0x8fc (size before relaxing)
 .debug_str     0x00000000000057b6       0x21 NuttX/nuttx/sched/libsched.a(sched_get_stackinfo.o)
                                        0x944 (size before relaxing)
 .debug_str     0x00000000000057d7       0x2a NuttX/nuttx/sched/libsched.a(sem_wait.o)
                                        0xa64 (size before relaxing)
 .debug_str     0x0000000000005801       0x26 NuttX/nuttx/sched/libsched.a(sem_trywait.o)
                                        0x97a (size before relaxing)
 .debug_str     0x0000000000005827       0x15 NuttX/nuttx/sched/libsched.a(sem_post.o)
                                        0x981 (size before relaxing)
 .debug_str     0x000000000000583c       0x16 NuttX/nuttx/sched/libsched.a(sem_reset.o)
                                        0x2d8 (size before relaxing)
 .debug_str     0x0000000000005852       0x12 NuttX/nuttx/sched/libsched.a(sig_kill.o)
                                        0x9a0 (size before relaxing)
 .debug_str     0x0000000000005864       0x2e NuttX/nuttx/sched/libsched.a(sig_usleep.o)
                                        0x244 (size before relaxing)
 .debug_str     0x0000000000005892       0x22 NuttX/nuttx/sched/libsched.a(task_exit.o)
                                        0xa6f (size before relaxing)
 .debug_str     0x00000000000058b4       0x13 NuttX/nuttx/sched/libsched.a(task_getpid.o)
                                        0x9b0 (size before relaxing)
 .debug_str     0x00000000000058c7       0x27 NuttX/nuttx/sched/libsched.a(task_terminate.o)
                                        0xad9 (size before relaxing)
 .debug_str     0x00000000000058ee       0x47 NuttX/nuttx/sched/libsched.a(wd_start.o)
                                        0x9d0 (size before relaxing)
 .debug_str     0x0000000000005935       0xba NuttX/nuttx/sched/libsched.a(sig_nanosleep.o)
                                        0x394 (size before relaxing)
 .debug_str     0x00000000000059ef       0x55 NuttX/nuttx/sched/libsched.a(sig_timedwait.o)
                                        0xbc9 (size before relaxing)
 .debug_str     0x0000000000005a44       0x3b NuttX/nuttx/arch/arm/src/libarch.a(stm32_timerisr.o)
                                        0x325 (size before relaxing)
 .debug_str     0x0000000000005a7f       0x29 NuttX/nuttx/mm/libmm.a(umm_realloc.o)
                                        0x246 (size before relaxing)
 .debug_str     0x0000000000005aa8       0x50 NuttX/nuttx/mm/libmm.a(mm_realloc.o)
                                        0x3cd (size before relaxing)
 .debug_str     0x0000000000005af8       0x1f NuttX/nuttx/libs/libc/libc.a(lib_umask.o)
                                        0x30e (size before relaxing)
 .debug_str     0x0000000000005b17       0x14 NuttX/nuttx/libs/libc/libc.a(sq_addfirst.o)
                                        0x220 (size before relaxing)
 .debug_str     0x0000000000005b2b       0x14 NuttX/nuttx/libs/libc/libc.a(sq_addafter.o)
                                        0x230 (size before relaxing)
 .debug_str     0x0000000000005b3f       0x19 NuttX/nuttx/libs/libc/libc.a(clock_ticks2time.o)
                                        0x264 (size before relaxing)
 .debug_str     0x0000000000005b58       0x2a NuttX/nuttx/libs/libc/libc.a(clock_time2ticks.o)
                                        0x273 (size before relaxing)
 .debug_str     0x0000000000005b82       0x2b NuttX/nuttx/libs/libc/libc.a(sem_getvalue.o)
                                        0x252 (size before relaxing)
 .debug_str     0x0000000000005bad       0x2c NuttX/nuttx/libs/libc/libc.a(sem_setprotocol.o)
                                        0x25f (size before relaxing)
 .debug_str     0x0000000000005bd9       0x1f NuttX/nuttx/libs/libc/libc.a(lib_asprintf.o)
                                        0x256 (size before relaxing)
 .debug_str     0x0000000000005bf8       0x4b NuttX/nuttx/libs/libc/libc.a(lib_snprintf.o)
                                        0x313 (size before relaxing)
 .debug_str     0x0000000000005c43       0x16 NuttX/nuttx/libs/libc/libc.a(lib_vasprintf.o)
                                        0x316 (size before relaxing)
 .debug_str     0x0000000000005c59       0x31 NuttX/nuttx/libs/libc/libc.a(lib_memoutstream.o)
                                        0x2cb (size before relaxing)
 .debug_str     0x0000000000005c8a       0x2d NuttX/nuttx/libs/libc/libc.a(lib_nulloutstream.o)
                                        0x28c (size before relaxing)
 .debug_str     0x0000000000005cb7       0x1e NuttX/nuttx/libs/libc/libc.a(lib_atol.o)
                                        0x1dc (size before relaxing)
 .debug_str     0x0000000000005cd5       0x44 NuttX/nuttx/libs/libc/libc.a(lib_strtol.o)
                                        0x26a (size before relaxing)
 .debug_str     0x0000000000005d19       0x3e NuttX/nuttx/libs/libc/libc.a(lib_strtoul.o)
                                        0x28c (size before relaxing)
 .debug_str     0x0000000000005d57       0x1c NuttX/nuttx/libs/libc/libc.a(lib_checkbase.o)
                                        0x247 (size before relaxing)
 .debug_str     0x0000000000005d73       0x19 NuttX/nuttx/libs/libc/libc.a(lib_isbasedigit.o)
                                        0x23c (size before relaxing)
 .debug_str     0x0000000000005d8c       0x1f NuttX/nuttx/libs/libc/libc.a(lib_skipspace.o)
                                        0x23a (size before relaxing)
 .debug_str     0x0000000000005dab       0x19 NuttX/nuttx/libs/libc/libc.a(lib_strdup.o)
                                        0x23d (size before relaxing)
 .debug_str     0x0000000000005dc4       0x2d NuttX/nuttx/libs/libc/libc.a(lib_strtok.o)
                                        0x1f9 (size before relaxing)
 .debug_str     0x0000000000005df1       0x23 NuttX/nuttx/libs/libc/libc.a(lib_strtokr.o)
                                        0x204 (size before relaxing)
 .debug_str     0x0000000000005e14       0x14 NuttX/nuttx/libs/libc/libc.a(lib_strchr.o)
                                        0x1e0 (size before relaxing)
 .debug_str     0x0000000000005e28       0x18 NuttX/nuttx/libs/libc/libc.a(lib_tcgetattr.o)
                                        0x235 (size before relaxing)
 .debug_str     0x0000000000005e40       0x28 NuttX/nuttx/libs/libc/libc.a(lib_tcsetattr.o)
                                        0x24d (size before relaxing)
 .debug_str     0x0000000000005e68       0x13 NuttX/nuttx/libs/libc/libc.a(task_getinfo.o)
                                        0x33a (size before relaxing)
 .debug_str     0x0000000000005e7b       0x14 NuttX/nuttx/libs/libc/libc.a(lib_isspace.o)
                                        0x14c (size before relaxing)
 .debug_str     0x0000000000005e8f       0x16 NuttX/nuttx/libs/libc/libc.a(lib_tcflush.o)
                                        0x1dd (size before relaxing)
 .debug_str     0x0000000000005ea5       0x11 NuttX/nuttx/drivers/libdrivers.a(tcdrain.o)
                                        0x1d6 (size before relaxing)
 .debug_str     0x0000000000005eb6       0x5b NuttX/nuttx/fs/libfs.a(fs_ioctl.o)
                                        0x4eb (size before relaxing)
 .debug_str     0x0000000000005f11       0x1f NuttX/nuttx/fs/libfs.a(fs_inodegetpath.o)
                                        0x47d (size before relaxing)
 .debug_str     0x0000000000005f30       0x37 NuttX/nuttx/fs/libfs.a(fs_fcntl.o)
                                        0x4e0 (size before relaxing)
 .debug_str     0x0000000000005f67       0x14 NuttX/nuttx/fs/libfs.a(fs_dup.o)
                                        0x4c6 (size before relaxing)
 .debug_str     0x0000000000005f7b       0x1b NuttX/nuttx/sched/libsched.a(sched_processtimer.o)
                                        0x96b (size before relaxing)
 .debug_str     0x0000000000005f96       0x14 NuttX/nuttx/libs/libc/libc.a(lib_strcat.o)
                                        0x1ec (size before relaxing)
 .debug_str     0x0000000000005faa      0x2f0 platforms/nuttx/src/bootloader/stm/stm32h7/arch_bootloader/libarch_bootloader.a(main.c.obj)
                                        0x883 (size before relaxing)
 .debug_str     0x000000000000629a       0x60 platforms/nuttx/src/bootloader/stm/stm32h7/arch_bootloader/libarch_bootloader.a(systick.c.obj)
                                        0x34d (size before relaxing)
 .debug_str     0x00000000000062fa      0x37d platforms/nuttx/src/px4/stm/stm32h7/board_reset/libarch_board_reset.a(board_reset.cpp.obj)
                                        0x5af (size before relaxing)
 .debug_str     0x0000000000006677       0x1a NuttX/nuttx/arch/arm/src/libarch.a(arm_systemreset.o)
                                        0x228 (size before relaxing)
 .debug_str     0x0000000000006691      0x307 NuttX/nuttx/arch/arm/src/libarch.a(stm32_flash.o)
                                        0x66c (size before relaxing)
 .debug_str     0x0000000000006998       0x99 platforms/nuttx/src/bootloader/common/lib/libbootloader_lib.a(flash_cache.c.obj)
                                        0x340 (size before relaxing)

.debug_loc      0x0000000000000000    0x1b871
 .debug_loc     0x0000000000000000      0x128 NuttX/nuttx/arch/arm/src/libarch.a(stm32_start.o)
 .debug_loc     0x0000000000000128      0x2f1 NuttX/nuttx/arch/arm/src/libarch.a(stm32_rcc.o)
 .debug_loc     0x0000000000000419      0x856 NuttX/nuttx/arch/arm/src/libarch.a(stm32_pwr.o)
 .debug_loc     0x0000000000000c6f       0x76 NuttX/nuttx/arch/arm/src/libarch.a(arm_doirq.o)
 .debug_loc     0x0000000000000ce5       0xfe NuttX/nuttx/arch/arm/src/libarch.a(arm_modifyreg32.o)
 .debug_loc     0x0000000000000de3       0x22 NuttX/nuttx/arch/arm/src/libarch.a(arm_udelay.o)
 .debug_loc     0x0000000000000e05       0x56 NuttX/nuttx/arch/arm/src/libarch.a(arm_cache.o)
 .debug_loc     0x0000000000000e5b      0x437 NuttX/nuttx/arch/arm/src/libarch.a(stm32_irq.o)
 .debug_loc     0x0000000000001292       0x86 NuttX/nuttx/arch/arm/src/libarch.a(arm_hardfault.o)
 .debug_loc     0x0000000000001318      0x199 NuttX/nuttx/arch/arm/src/libarch.a(arm_svcall.o)
 .debug_loc     0x00000000000014b1       0x4a NuttX/nuttx/libs/libc/libc.a(lib_assert.o)
 .debug_loc     0x00000000000014fb       0x25 boards/hkust/nxt/src/libdrivers_board.a(bootloader_main.c.obj)
 .debug_loc     0x0000000000001520       0xbd NuttX/nuttx/sched/libsched.a(nx_start.o)
 .debug_loc     0x00000000000015dd       0x4a NuttX/nuttx/sched/libsched.a(nx_bringup.o)
 .debug_loc     0x0000000000001627      0x179 NuttX/nuttx/sched/libsched.a(irq_attach.o)
 .debug_loc     0x00000000000017a0       0xdc NuttX/nuttx/sched/libsched.a(irq_dispatch.o)
 .debug_loc     0x000000000000187c       0x86 NuttX/nuttx/sched/libsched.a(irq_unexpectedisr.o)
 .debug_loc     0x0000000000001902       0x15 NuttX/nuttx/sched/libsched.a(sched_lock.o)
 .debug_loc     0x0000000000001917       0xb4 NuttX/nuttx/sched/libsched.a(sched_unlock.o)
 .debug_loc     0x00000000000019cb      0x496 NuttX/nuttx/sched/libsched.a(task_create.o)
 .debug_loc     0x0000000000001e61      0x26c NuttX/nuttx/sched/libsched.a(task_init.o)
 .debug_loc     0x00000000000020cd      0x7a1 NuttX/nuttx/sched/libsched.a(task_setup.o)
 .debug_loc     0x000000000000286e       0xaa NuttX/nuttx/sched/libsched.a(task_activate.o)
 .debug_loc     0x0000000000002918       0x90 NuttX/nuttx/sched/libsched.a(task_start.o)
 .debug_loc     0x00000000000029a8       0x8e NuttX/nuttx/sched/libsched.a(exit.o)
 .debug_loc     0x0000000000002a36      0x114 NuttX/nuttx/sched/libsched.a(group_create.o)
 .debug_loc     0x0000000000002b4a       0x66 NuttX/nuttx/sched/libsched.a(group_leave.o)
 .debug_loc     0x0000000000002bb0       0x63 NuttX/nuttx/sched/libsched.a(group_setupidlefiles.o)
 .debug_loc     0x0000000000002c13       0x63 NuttX/nuttx/sched/libsched.a(group_setuptaskfiles.o)
 .debug_loc     0x0000000000002c76       0x3f NuttX/nuttx/sched/libsched.a(irq_initialize.o)
 .debug_loc     0x0000000000002cb5      0x133 NuttX/nuttx/sched/libsched.a(sched_releasetcb.o)
 .debug_loc     0x0000000000002de8       0x9b NuttX/nuttx/sched/libsched.a(sem_destroy.o)
 .debug_loc     0x0000000000002e83      0x21b NuttX/nuttx/sched/libsched.a(sig_procmask.o)
 .debug_loc     0x000000000000309e       0x67 NuttX/nuttx/sched/libsched.a(sig_unmaskpendingsignal.o)
 .debug_loc     0x0000000000003105      0x16e NuttX/nuttx/sched/libsched.a(sig_removependingsignal.o)
 .debug_loc     0x0000000000003273      0x100 NuttX/nuttx/sched/libsched.a(sig_releasependingsignal.o)
 .debug_loc     0x0000000000003373       0x45 NuttX/nuttx/sched/libsched.a(sig_lowest.o)
 .debug_loc     0x00000000000033b8       0xe2 NuttX/nuttx/sched/libsched.a(sig_cleanup.o)
 .debug_loc     0x000000000000349a      0x6b0 NuttX/nuttx/sched/libsched.a(sig_dispatch.o)
 .debug_loc     0x0000000000003b4a      0x186 NuttX/nuttx/sched/libsched.a(sig_deliver.o)
 .debug_loc     0x0000000000003cd0      0x3f2 NuttX/nuttx/sched/libsched.a(sig_default.o)
 .debug_loc     0x00000000000040c2       0xa4 NuttX/nuttx/sched/libsched.a(task_exithook.o)
 .debug_loc     0x0000000000004166       0x3f NuttX/nuttx/sched/libsched.a(task_recover.o)
 .debug_loc     0x00000000000041a5       0x59 NuttX/nuttx/sched/libsched.a(task_cancelpt.o)
 .debug_loc     0x00000000000041fe       0x34 NuttX/nuttx/sched/libsched.a(wd_recover.o)
 .debug_loc     0x0000000000004232       0x30 NuttX/nuttx/sched/libsched.a(group_setupstreams.o)
 .debug_loc     0x0000000000004262      0x10f NuttX/nuttx/sched/libsched.a(sched_gettcb.o)
 .debug_loc     0x0000000000004371       0xc1 NuttX/nuttx/sched/libsched.a(sched_suspend.o)
 .debug_loc     0x0000000000004432       0xaa NuttX/nuttx/sched/libsched.a(sched_continue.o)
 .debug_loc     0x00000000000044dc       0x9a NuttX/nuttx/sched/libsched.a(sem_recover.o)
 .debug_loc     0x0000000000004576       0xe4 NuttX/nuttx/sched/libsched.a(sem_waitirq.o)
 .debug_loc     0x000000000000465a      0x1ce NuttX/nuttx/sched/libsched.a(sig_initialize.o)
 .debug_loc     0x0000000000004828      0x328 NuttX/nuttx/sched/libsched.a(sig_action.o)
 .debug_loc     0x0000000000004b50      0x14c NuttX/nuttx/sched/libsched.a(sig_pending.o)
 .debug_loc     0x0000000000004c9c       0x77 NuttX/nuttx/sched/libsched.a(sig_findaction.o)
 .debug_loc     0x0000000000004d13       0x9a NuttX/nuttx/sched/libsched.a(sig_allocpendingsigaction.o)
 .debug_loc     0x0000000000004dad      0x100 NuttX/nuttx/sched/libsched.a(sig_releasependingsigaction.o)
 .debug_loc     0x0000000000004ead      0x16e NuttX/nuttx/sched/libsched.a(wd_cancel.o)
 .debug_loc     0x000000000000501b       0x83 NuttX/nuttx/sched/libsched.a(sched_addblocked.o)
 .debug_loc     0x000000000000509e       0x48 NuttX/nuttx/sched/libsched.a(sched_removeblocked.o)
 .debug_loc     0x00000000000050e6      0x111 NuttX/nuttx/sched/libsched.a(sched_addprioritized.o)
 .debug_loc     0x00000000000051f7      0x147 NuttX/apps/libapps.a(cdcacm_main.c.src.NxtPX4.PX4-Autopilot.platforms.nuttx.NuttX.apps.system.cdcacm.o)
 .debug_loc     0x000000000000533e      0x619 NuttX/nuttx/arch/arm/src/libarch.a(stm32_gpio.o)
 .debug_loc     0x0000000000005957       0x61 NuttX/nuttx/arch/arm/src/libarch.a(arm_assert.o)
 .debug_loc     0x00000000000059b8       0xed NuttX/nuttx/arch/arm/src/libarch.a(arm_blocktask.o)
 .debug_loc     0x0000000000005aa5       0x65 NuttX/nuttx/arch/arm/src/libarch.a(arm_copyfullstate.o)
 .debug_loc     0x0000000000005b0a       0xbc NuttX/nuttx/arch/arm/src/libarch.a(arm_createstack.o)
 .debug_loc     0x0000000000005bc6       0x61 NuttX/nuttx/arch/arm/src/libarch.a(arm_exit.o)
 .debug_loc     0x0000000000005c27       0x6b NuttX/nuttx/arch/arm/src/libarch.a(arm_initialize.o)
 .debug_loc     0x0000000000005c92       0x59 NuttX/nuttx/arch/arm/src/libarch.a(arm_initialstate.o)
 .debug_loc     0x0000000000005ceb       0x1a NuttX/nuttx/arch/arm/src/libarch.a(arm_interruptcontext.o)
 .debug_loc     0x0000000000005d05       0x74 NuttX/nuttx/arch/arm/src/libarch.a(arm_releasepending.o)
 .debug_loc     0x0000000000005d79       0x47 NuttX/nuttx/arch/arm/src/libarch.a(arm_releasestack.o)
 .debug_loc     0x0000000000005dc0       0xb8 NuttX/nuttx/arch/arm/src/libarch.a(arm_schedulesigaction.o)
 .debug_loc     0x0000000000005e78       0x58 NuttX/nuttx/arch/arm/src/libarch.a(arm_sigdeliver.o)
 .debug_loc     0x0000000000005ed0       0x75 NuttX/nuttx/arch/arm/src/libarch.a(arm_stackframe.o)
 .debug_loc     0x0000000000005f45       0xa6 NuttX/nuttx/arch/arm/src/libarch.a(arm_unblocktask.o)
 .debug_loc     0x0000000000005feb       0x76 NuttX/nuttx/arch/arm/src/libarch.a(arm_usestack.o)
 .debug_loc     0x0000000000006061      0x375 NuttX/nuttx/arch/arm/src/libarch.a(arm_checkstack.o)
 .debug_loc     0x00000000000063d6     0x15e5 NuttX/nuttx/arch/arm/src/libarch.a(stm32_serial.o)
 .debug_loc     0x00000000000079bb     0x36fd NuttX/nuttx/arch/arm/src/libarch.a(stm32_otgdev.o)
 .debug_loc     0x000000000000b0b8       0x64 NuttX/nuttx/mm/libmm.a(umm_initialize.o)
 .debug_loc     0x000000000000b11c       0x32 NuttX/nuttx/mm/libmm.a(umm_free.o)
 .debug_loc     0x000000000000b14e       0x32 NuttX/nuttx/mm/libmm.a(umm_malloc.o)
 .debug_loc     0x000000000000b180       0x64 NuttX/nuttx/mm/libmm.a(umm_memalign.o)
 .debug_loc     0x000000000000b1e4       0x32 NuttX/nuttx/mm/libmm.a(umm_zalloc.o)
 .debug_loc     0x000000000000b216      0x2d6 NuttX/nuttx/mm/libmm.a(mm_initialize.o)
 .debug_loc     0x000000000000b4ec       0x9f NuttX/nuttx/mm/libmm.a(mm_sem.o)
 .debug_loc     0x000000000000b58b       0xc7 NuttX/nuttx/mm/libmm.a(mm_addfreechunk.o)
 .debug_loc     0x000000000000b652       0x70 NuttX/nuttx/mm/libmm.a(mm_size2ndx.o)
 .debug_loc     0x000000000000b6c2      0x1b2 NuttX/nuttx/mm/libmm.a(mm_free.o)
 .debug_loc     0x000000000000b874      0x219 NuttX/nuttx/mm/libmm.a(mm_malloc.o)
 .debug_loc     0x000000000000ba8d      0x38b NuttX/nuttx/mm/libmm.a(mm_memalign.o)
 .debug_loc     0x000000000000be18       0x6a NuttX/nuttx/mm/libmm.a(mm_zalloc.o)
 .debug_loc     0x000000000000be82      0x160 NuttX/nuttx/mm/libmm.a(mm_shrinkchunk.o)
 .debug_loc     0x000000000000bfe2       0x24 NuttX/nuttx/libs/libc/libc.a(lib_errno.o)
 .debug_loc     0x000000000000c006      0x15f NuttX/nuttx/libs/libc/libc.a(lib_stream.o)
 .debug_loc     0x000000000000c165       0xaf NuttX/nuttx/libs/libc/libc.a(lib_filesem.o)
 .debug_loc     0x000000000000c214       0x86 NuttX/nuttx/libs/libc/libc.a(sq_rem.o)
 .debug_loc     0x000000000000c29a       0x3a NuttX/nuttx/libs/libc/libc.a(sq_remfirst.o)
 .debug_loc     0x000000000000c2d4       0x5f NuttX/nuttx/libs/libc/libc.a(sq_remafter.o)
 .debug_loc     0x000000000000c333       0x22 NuttX/nuttx/libs/libc/libc.a(dq_rem.o)
 .debug_loc     0x000000000000c355       0xd9 NuttX/nuttx/libs/libc/libc.a(task_startup.o)
 .debug_loc     0x000000000000c42e      0x1ae NuttX/nuttx/libs/libc/libc.a(sem_init.o)
 .debug_loc     0x000000000000c5dc       0xb8 NuttX/nuttx/libs/libc/libc.a(sig_addset.o)
 .debug_loc     0x000000000000c694       0xb8 NuttX/nuttx/libs/libc/libc.a(sig_delset.o)
 .debug_loc     0x000000000000c74c       0x25 NuttX/nuttx/libs/libc/libc.a(sig_emptyset.o)
 .debug_loc     0x000000000000c771       0xb8 NuttX/nuttx/libs/libc/libc.a(sig_ismember.o)
 .debug_loc     0x000000000000c829       0x15 NuttX/nuttx/libs/libc/libc.a(lib_printf.o)
 .debug_loc     0x000000000000c83e       0xb1 NuttX/nuttx/libs/libc/libc.a(lib_libflushall.o)
 .debug_loc     0x000000000000c8ef      0x117 NuttX/nuttx/libs/libc/libc.a(lib_libfflush.o)
 .debug_loc     0x000000000000ca06       0xa7 NuttX/nuttx/libs/libc/libc.a(lib_vfprintf.o)
 .debug_loc     0x000000000000caad       0xd6 NuttX/nuttx/libs/libc/libc.a(lib_stdoutstream.o)
 .debug_loc     0x000000000000cb83      0x21d NuttX/nuttx/libs/libc/libc.a(lib_memset.o)
 .debug_loc     0x000000000000cda0       0x5b NuttX/nuttx/libs/libc/libc.a(lib_strcpy.o)
 .debug_loc     0x000000000000cdfb       0x47 NuttX/nuttx/libs/libc/libc.a(lib_strlen.o)
 .debug_loc     0x000000000000ce42       0xcd NuttX/nuttx/libs/libc/libc.a(lib_strncpy.o)
 .debug_loc     0x000000000000cf0f       0xd3 NuttX/nuttx/libs/libc/libc.a(lib_cfspeed.o)
 .debug_loc     0x000000000000cfe2       0x46 NuttX/nuttx/libs/libc/libc.a(tls_getinfo.o)
 .debug_loc     0x000000000000d028       0x5c NuttX/nuttx/libs/libc/libc.a(lib_streamsem.o)
 .debug_loc     0x000000000000d084       0x25 NuttX/nuttx/libs/libc/libc.a(lib_libnoflush.o)
 .debug_loc     0x000000000000d0a9      0xec4 NuttX/nuttx/libs/libc/libc.a(lib_libvsprintf.o)
 .debug_loc     0x000000000000df6d      0x10d NuttX/nuttx/libs/libc/libc.a(lib_ultoa_invert.o)
 .debug_loc     0x000000000000e07a      0x37a NuttX/nuttx/libs/libc/libc.a(lib_dtoa_engine.o)
 .debug_loc     0x000000000000e3f4       0x9d NuttX/nuttx/libs/libc/libc.a(lib_fputc.o)
 .debug_loc     0x000000000000e491       0xa0 NuttX/nuttx/libs/libc/libc.a(lib_strnlen.o)
 .debug_loc     0x000000000000e531      0x432 NuttX/nuttx/libs/libc/libc.a(lib_libfwrite.o)
 .debug_loc     0x000000000000e963       0x8b NuttX/nuttx/libs/libc/libc.a(lib_rdflush.o)
 .debug_loc     0x000000000000e9ee       0x66 NuttX/nuttx/libs/libc/libc.a(lib_fseek.o)
 .debug_loc     0x000000000000ea54       0x42 NuttX/nuttx/libs/libc/libc.a(lib_wrflush.o)
 .debug_loc     0x000000000000ea96      0x869 platforms/nuttx/src/bootloader/common/libbootloader.a(bl.c.obj)
 .debug_loc     0x000000000000f2ff      0x12a platforms/nuttx/src/bootloader/common/lib/libbootloader_lib.a(cdcacm.c.obj)
 .debug_loc     0x000000000000f429      0x222 platforms/nuttx/src/bootloader/common/lib/libbootloader_lib.a(uart.c.obj)
 .debug_loc     0x000000000000f64b      0x1f3 NuttX/nuttx/boards/libboards.a(boardctl.o)
 .debug_loc     0x000000000000f83e     0x169d NuttX/nuttx/drivers/libdrivers.a(serial.o)
 .debug_loc     0x0000000000010edb      0x1ff NuttX/nuttx/drivers/libdrivers.a(serial_io.o)
 .debug_loc     0x00000000000110da       0x24 NuttX/nuttx/drivers/libdrivers.a(syslog_flush.o)
 .debug_loc     0x00000000000110fe     0x24b5 NuttX/nuttx/drivers/libdrivers.a(cdcacm.o)
 .debug_loc     0x00000000000135b3      0x664 NuttX/nuttx/drivers/libdrivers.a(cdcacm_desc.o)
 .debug_loc     0x0000000000013c17      0x119 NuttX/nuttx/drivers/libdrivers.a(dev_null.o)
 .debug_loc     0x0000000000013d30      0x1cb NuttX/nuttx/drivers/libdrivers.a(syslog_channel.o)
 .debug_loc     0x0000000000013efb      0x784 NuttX/nuttx/fs/libfs.a(fs_files.o)
 .debug_loc     0x000000000001467f       0x53 NuttX/nuttx/fs/libfs.a(fs_inode.o)
 .debug_loc     0x00000000000146d2      0x3fe NuttX/nuttx/fs/libfs.a(fs_inodereserve.o)
 .debug_loc     0x0000000000014ad0      0x2a1 NuttX/nuttx/fs/libfs.a(fs_inodesearch.o)
 .debug_loc     0x0000000000014d71       0x92 NuttX/nuttx/fs/libfs.a(fs_close.o)
 .debug_loc     0x0000000000014e03      0x103 NuttX/nuttx/fs/libfs.a(fs_dup2.o)
 .debug_loc     0x0000000000014f06      0x2ca NuttX/nuttx/fs/libfs.a(fs_lseek.o)
 .debug_loc     0x00000000000151d0      0x453 NuttX/nuttx/fs/libfs.a(fs_open.o)
 .debug_loc     0x0000000000015623      0x233 NuttX/nuttx/fs/libfs.a(fs_read.o)
 .debug_loc     0x0000000000015856      0x25e NuttX/nuttx/fs/libfs.a(fs_write.o)
 .debug_loc     0x0000000000015ab4      0x2f7 NuttX/nuttx/fs/libfs.a(fs_fdopen.o)
 .debug_loc     0x0000000000015dab       0xc5 NuttX/nuttx/fs/libfs.a(fs_registerdriver.o)
 .debug_loc     0x0000000000015e70       0x5e NuttX/nuttx/fs/libfs.a(fs_unregisterdriver.o)
 .debug_loc     0x0000000000015ece       0x7a NuttX/nuttx/fs/libfs.a(fs_inodeaddref.o)
 .debug_loc     0x0000000000015f48       0x73 NuttX/nuttx/fs/libfs.a(fs_inodefind.o)
 .debug_loc     0x0000000000015fbb       0x8b NuttX/nuttx/fs/libfs.a(fs_inoderelease.o)
 .debug_loc     0x0000000000016046       0xda NuttX/nuttx/fs/libfs.a(fs_inoderemove.o)
 .debug_loc     0x0000000000016120       0x4c NuttX/nuttx/fs/libfs.a(fs_inodefree.o)
 .debug_loc     0x000000000001616c       0x55 NuttX/nuttx/sched/libsched.a(clock_initialize.o)
 .debug_loc     0x00000000000161c1       0x38 NuttX/nuttx/sched/libsched.a(sched_getfiles.o)
 .debug_loc     0x00000000000161f9       0x82 NuttX/nuttx/sched/libsched.a(sched_addreadytorun.o)
 .debug_loc     0x000000000001627b       0x75 NuttX/nuttx/sched/libsched.a(sched_removereadytorun.o)
 .debug_loc     0x00000000000162f0       0x7c NuttX/nuttx/sched/libsched.a(sched_mergepending.o)
 .debug_loc     0x000000000001636c       0x2b NuttX/nuttx/sched/libsched.a(sched_getstreams.o)
 .debug_loc     0x0000000000016397       0x15 NuttX/nuttx/sched/libsched.a(sched_idletask.o)
 .debug_loc     0x00000000000163ac       0xc2 NuttX/nuttx/sched/libsched.a(sched_get_stackinfo.o)
 .debug_loc     0x000000000001646e      0x1fb NuttX/nuttx/sched/libsched.a(sem_wait.o)
 .debug_loc     0x0000000000016669      0x190 NuttX/nuttx/sched/libsched.a(sem_trywait.o)
 .debug_loc     0x00000000000167f9      0x208 NuttX/nuttx/sched/libsched.a(sem_post.o)
 .debug_loc     0x0000000000016a01       0xe6 NuttX/nuttx/sched/libsched.a(sem_reset.o)
 .debug_loc     0x0000000000016ae7      0x101 NuttX/nuttx/sched/libsched.a(sig_kill.o)
 .debug_loc     0x0000000000016be8       0x7a NuttX/nuttx/sched/libsched.a(sig_usleep.o)
 .debug_loc     0x0000000000016c62       0x3f NuttX/nuttx/sched/libsched.a(task_exit.o)
 .debug_loc     0x0000000000016ca1       0x22 NuttX/nuttx/sched/libsched.a(task_getpid.o)
 .debug_loc     0x0000000000016cc3       0xaa NuttX/nuttx/sched/libsched.a(task_terminate.o)
 .debug_loc     0x0000000000016d6d      0x32f NuttX/nuttx/sched/libsched.a(wd_start.o)
 .debug_loc     0x000000000001709c      0x293 NuttX/nuttx/sched/libsched.a(sig_nanosleep.o)
 .debug_loc     0x000000000001732f      0x2dd NuttX/nuttx/sched/libsched.a(sig_timedwait.o)
 .debug_loc     0x000000000001760c       0x93 NuttX/nuttx/arch/arm/src/libarch.a(stm32_timerisr.o)
 .debug_loc     0x000000000001769f       0x64 NuttX/nuttx/mm/libmm.a(umm_realloc.o)
 .debug_loc     0x0000000000017703      0x687 NuttX/nuttx/mm/libmm.a(mm_realloc.o)
 .debug_loc     0x0000000000017d8a       0x6e NuttX/nuttx/libs/libc/libc.a(lib_umask.o)
 .debug_loc     0x0000000000017df8       0xbd NuttX/nuttx/libs/libc/libc.a(sq_addafter.o)
 .debug_loc     0x0000000000017eb5       0x25 NuttX/nuttx/libs/libc/libc.a(clock_ticks2time.o)
 .debug_loc     0x0000000000017eda       0xab NuttX/nuttx/libs/libc/libc.a(clock_time2ticks.o)
 .debug_loc     0x0000000000017f85       0xc0 NuttX/nuttx/libs/libc/libc.a(sem_getvalue.o)
 .debug_loc     0x0000000000018045       0xe4 NuttX/nuttx/libs/libc/libc.a(sem_setprotocol.o)
 .debug_loc     0x0000000000018129       0x3a NuttX/nuttx/libs/libc/libc.a(lib_asprintf.o)
 .debug_loc     0x0000000000018163       0xf5 NuttX/nuttx/libs/libc/libc.a(lib_snprintf.o)
 .debug_loc     0x0000000000018258       0xd1 NuttX/nuttx/libs/libc/libc.a(lib_vasprintf.o)
 .debug_loc     0x0000000000018329       0x5e NuttX/nuttx/libs/libc/libc.a(lib_memoutstream.o)
 .debug_loc     0x0000000000018387       0x25 NuttX/nuttx/libs/libc/libc.a(lib_atol.o)
 .debug_loc     0x00000000000183ac      0x1a9 NuttX/nuttx/libs/libc/libc.a(lib_strtol.o)
 .debug_loc     0x0000000000018555      0x1fd NuttX/nuttx/libs/libc/libc.a(lib_strtoul.o)
 .debug_loc     0x0000000000018752       0xfc NuttX/nuttx/libs/libc/libc.a(lib_checkbase.o)
 .debug_loc     0x000000000001884e      0x166 NuttX/nuttx/libs/libc/libc.a(lib_isbasedigit.o)
 .debug_loc     0x00000000000189b4       0x52 NuttX/nuttx/libs/libc/libc.a(lib_skipspace.o)
 .debug_loc     0x0000000000018a06       0x53 NuttX/nuttx/libs/libc/libc.a(lib_strdup.o)
 .debug_loc     0x0000000000018a59       0x4a NuttX/nuttx/libs/libc/libc.a(lib_strtok.o)
 .debug_loc     0x0000000000018aa3       0xf2 NuttX/nuttx/libs/libc/libc.a(lib_strtokr.o)
 .debug_loc     0x0000000000018b95       0x31 NuttX/nuttx/libs/libc/libc.a(lib_strchr.o)
 .debug_loc     0x0000000000018bc6       0x57 NuttX/nuttx/libs/libc/libc.a(lib_tcgetattr.o)
 .debug_loc     0x0000000000018c1d       0xb0 NuttX/nuttx/libs/libc/libc.a(lib_tcsetattr.o)
 .debug_loc     0x0000000000018ccd       0x15 NuttX/nuttx/libs/libc/libc.a(task_getinfo.o)
 .debug_loc     0x0000000000018ce2       0x51 NuttX/nuttx/libs/libc/libc.a(lib_isspace.o)
 .debug_loc     0x0000000000018d33       0x57 NuttX/nuttx/libs/libc/libc.a(lib_tcflush.o)
 .debug_loc     0x0000000000018d8a       0x25 NuttX/nuttx/drivers/libdrivers.a(tcdrain.o)
 .debug_loc     0x0000000000018daf      0x3a5 NuttX/nuttx/fs/libfs.a(fs_ioctl.o)
 .debug_loc     0x0000000000019154       0xce NuttX/nuttx/fs/libfs.a(fs_inodegetpath.o)
 .debug_loc     0x0000000000019222      0x3e8 NuttX/nuttx/fs/libfs.a(fs_fcntl.o)
 .debug_loc     0x000000000001960a      0x12b NuttX/nuttx/fs/libfs.a(fs_dup.o)
 .debug_loc     0x0000000000019735       0x9e NuttX/nuttx/libs/libc/libc.a(lib_strcat.o)
 .debug_loc     0x00000000000197d3      0x927 platforms/nuttx/src/bootloader/stm/stm32h7/arch_bootloader/libarch_bootloader.a(main.c.obj)
 .debug_loc     0x000000000001a0fa       0x4a platforms/nuttx/src/bootloader/stm/stm32h7/arch_bootloader/libarch_bootloader.a(systick.c.obj)
 .debug_loc     0x000000000001a144       0xd4 platforms/nuttx/src/px4/stm/stm32h7/board_reset/libarch_board_reset.a(board_reset.cpp.obj)
 .debug_loc     0x000000000001a218       0x22 NuttX/nuttx/arch/arm/src/libarch.a(arm_systemreset.o)
 .debug_loc     0x000000000001a23a     0x1295 NuttX/nuttx/arch/arm/src/libarch.a(stm32_flash.o)
 .debug_loc     0x000000000001b4cf      0x3a2 platforms/nuttx/src/bootloader/common/lib/libbootloader_lib.a(flash_cache.c.obj)

.debug_ranges   0x0000000000000000     0x3f28
 .debug_ranges  0x0000000000000000       0x28 NuttX/nuttx/arch/arm/src/libarch.a(stm32_start.o)
 .debug_ranges  0x0000000000000028       0x80 NuttX/nuttx/arch/arm/src/libarch.a(stm32_rcc.o)
 .debug_ranges  0x00000000000000a8       0x18 NuttX/nuttx/arch/arm/src/libarch.a(stm32_lowputc.o)
 .debug_ranges  0x00000000000000c0      0x1d0 NuttX/nuttx/arch/arm/src/libarch.a(stm32_pwr.o)
 .debug_ranges  0x0000000000000290       0x10 NuttX/nuttx/arch/arm/src/libarch.a(arm_doirq.o)
 .debug_ranges  0x00000000000002a0       0x78 NuttX/nuttx/arch/arm/src/libarch.a(arm_modifyreg32.o)
 .debug_ranges  0x0000000000000318       0x10 NuttX/nuttx/arch/arm/src/libarch.a(arm_udelay.o)
 .debug_ranges  0x0000000000000328       0x28 NuttX/nuttx/arch/arm/src/libarch.a(arm_cache.o)
 .debug_ranges  0x0000000000000350       0x30 NuttX/nuttx/arch/arm/src/libarch.a(stm32_irq.o)
 .debug_ranges  0x0000000000000380       0x40 NuttX/nuttx/arch/arm/src/libarch.a(arm_hardfault.o)
 .debug_ranges  0x00000000000003c0       0x10 NuttX/nuttx/arch/arm/src/libarch.a(arm_svcall.o)
 .debug_ranges  0x00000000000003d0       0x10 NuttX/nuttx/libs/libc/libc.a(lib_assert.o)
 .debug_ranges  0x00000000000003e0       0x10 NuttX/nuttx/libs/libc/libc.a(lib_abort.o)
 .debug_ranges  0x00000000000003f0       0x30 boards/hkust/nxt/src/libdrivers_board.a(bootloader_main.c.obj)
 .debug_ranges  0x0000000000000420       0x18 boards/hkust/nxt/src/libdrivers_board.a(usb.c.obj)
 .debug_ranges  0x0000000000000438       0x60 NuttX/nuttx/sched/libsched.a(nx_start.o)
 .debug_ranges  0x0000000000000498       0x48 NuttX/nuttx/sched/libsched.a(nx_bringup.o)
 .debug_ranges  0x00000000000004e0       0x60 NuttX/nuttx/sched/libsched.a(irq_attach.o)
 .debug_ranges  0x0000000000000540       0x10 NuttX/nuttx/sched/libsched.a(irq_dispatch.o)
 .debug_ranges  0x0000000000000550       0x40 NuttX/nuttx/sched/libsched.a(irq_unexpectedisr.o)
 .debug_ranges  0x0000000000000590       0x10 NuttX/nuttx/sched/libsched.a(sched_lock.o)
 .debug_ranges  0x00000000000005a0       0x28 NuttX/nuttx/sched/libsched.a(sched_unlock.o)
 .debug_ranges  0x00000000000005c8       0x30 NuttX/nuttx/sched/libsched.a(task_create.o)
 .debug_ranges  0x00000000000005f8       0x18 NuttX/nuttx/sched/libsched.a(task_init.o)
 .debug_ranges  0x0000000000000610      0x150 NuttX/nuttx/sched/libsched.a(task_setup.o)
 .debug_ranges  0x0000000000000760       0x58 NuttX/nuttx/sched/libsched.a(task_activate.o)
 .debug_ranges  0x00000000000007b8       0x10 NuttX/nuttx/sched/libsched.a(task_start.o)
 .debug_ranges  0x00000000000007c8       0x18 NuttX/nuttx/sched/libsched.a(exit.o)
 .debug_ranges  0x00000000000007e0       0x20 NuttX/nuttx/sched/libsched.a(group_create.o)
 .debug_ranges  0x0000000000000800       0x10 NuttX/nuttx/sched/libsched.a(group_leave.o)
 .debug_ranges  0x0000000000000810       0x10 NuttX/nuttx/sched/libsched.a(group_setupidlefiles.o)
 .debug_ranges  0x0000000000000820       0x10 NuttX/nuttx/sched/libsched.a(group_setuptaskfiles.o)
 .debug_ranges  0x0000000000000830       0x10 NuttX/nuttx/sched/libsched.a(irq_initialize.o)
 .debug_ranges  0x0000000000000840       0x40 NuttX/nuttx/sched/libsched.a(sched_releasetcb.o)
 .debug_ranges  0x0000000000000880       0x18 NuttX/nuttx/sched/libsched.a(sem_destroy.o)
 .debug_ranges  0x0000000000000898       0x30 NuttX/nuttx/sched/libsched.a(sig_procmask.o)
 .debug_ranges  0x00000000000008c8       0x10 NuttX/nuttx/sched/libsched.a(sig_unmaskpendingsignal.o)
 .debug_ranges  0x00000000000008d8       0x28 NuttX/nuttx/sched/libsched.a(sig_removependingsignal.o)
 .debug_ranges  0x0000000000000900       0x10 NuttX/nuttx/sched/libsched.a(sig_releasependingsignal.o)
 .debug_ranges  0x0000000000000910       0x10 NuttX/nuttx/sched/libsched.a(sig_lowest.o)
 .debug_ranges  0x0000000000000920       0x18 NuttX/nuttx/sched/libsched.a(sig_cleanup.o)
 .debug_ranges  0x0000000000000938      0x178 NuttX/nuttx/sched/libsched.a(sig_dispatch.o)
 .debug_ranges  0x0000000000000ab0       0xb0 NuttX/nuttx/sched/libsched.a(sig_deliver.o)
 .debug_ranges  0x0000000000000b60       0xe0 NuttX/nuttx/sched/libsched.a(sig_default.o)
 .debug_ranges  0x0000000000000c40       0x10 NuttX/nuttx/sched/libsched.a(task_exithook.o)
 .debug_ranges  0x0000000000000c50       0x10 NuttX/nuttx/sched/libsched.a(task_recover.o)
 .debug_ranges  0x0000000000000c60       0x40 NuttX/nuttx/sched/libsched.a(task_cancelpt.o)
 .debug_ranges  0x0000000000000ca0       0x10 NuttX/nuttx/sched/libsched.a(wd_recover.o)
 .debug_ranges  0x0000000000000cb0       0x10 NuttX/nuttx/sched/libsched.a(group_setupstreams.o)
 .debug_ranges  0x0000000000000cc0       0x10 NuttX/nuttx/sched/libsched.a(sched_gettcb.o)
 .debug_ranges  0x0000000000000cd0       0x58 NuttX/nuttx/sched/libsched.a(sched_suspend.o)
 .debug_ranges  0x0000000000000d28       0x58 NuttX/nuttx/sched/libsched.a(sched_continue.o)
 .debug_ranges  0x0000000000000d80       0x28 NuttX/nuttx/sched/libsched.a(sem_recover.o)
 .debug_ranges  0x0000000000000da8       0x58 NuttX/nuttx/sched/libsched.a(sem_waitirq.o)
 .debug_ranges  0x0000000000000e00       0x30 NuttX/nuttx/sched/libsched.a(sig_initialize.o)
 .debug_ranges  0x0000000000000e30       0x20 NuttX/nuttx/sched/libsched.a(sig_action.o)
 .debug_ranges  0x0000000000000e50       0x30 NuttX/nuttx/sched/libsched.a(sig_pending.o)
 .debug_ranges  0x0000000000000e80       0x10 NuttX/nuttx/sched/libsched.a(sig_findaction.o)
 .debug_ranges  0x0000000000000e90       0x48 NuttX/nuttx/sched/libsched.a(sig_allocpendingsigaction.o)
 .debug_ranges  0x0000000000000ed8       0x10 NuttX/nuttx/sched/libsched.a(sig_releasependingsigaction.o)
 .debug_ranges  0x0000000000000ee8       0x58 NuttX/nuttx/sched/libsched.a(wd_cancel.o)
 .debug_ranges  0x0000000000000f40       0x10 NuttX/nuttx/sched/libsched.a(sched_addblocked.o)
 .debug_ranges  0x0000000000000f50       0x10 NuttX/nuttx/sched/libsched.a(sched_removeblocked.o)
 .debug_ranges  0x0000000000000f60       0x10 NuttX/nuttx/sched/libsched.a(wd_initialize.o)
 .debug_ranges  0x0000000000000f70       0x10 NuttX/nuttx/sched/libsched.a(sched_addprioritized.o)
 .debug_ranges  0x0000000000000f80       0x18 NuttX/apps/libapps.a(cdcacm_main.c.src.NxtPX4.PX4-Autopilot.platforms.nuttx.NuttX.apps.system.cdcacm.o)
 .debug_ranges  0x0000000000000f98       0x10 NuttX/nuttx/arch/arm/src/libarch.a(stm32_allocateheap.o)
 .debug_ranges  0x0000000000000fa8       0x48 NuttX/nuttx/arch/arm/src/libarch.a(stm32_gpio.o)
 .debug_ranges  0x0000000000000ff0       0x28 NuttX/nuttx/arch/arm/src/libarch.a(arm_assert.o)
 .debug_ranges  0x0000000000001018       0x28 NuttX/nuttx/arch/arm/src/libarch.a(arm_blocktask.o)
 .debug_ranges  0x0000000000001040       0x10 NuttX/nuttx/arch/arm/src/libarch.a(arm_copyfullstate.o)
 .debug_ranges  0x0000000000001050       0x10 NuttX/nuttx/arch/arm/src/libarch.a(arm_createstack.o)
 .debug_ranges  0x0000000000001060       0x10 NuttX/nuttx/arch/arm/src/libarch.a(arm_exit.o)
 .debug_ranges  0x0000000000001070       0x30 NuttX/nuttx/arch/arm/src/libarch.a(arm_initialize.o)
 .debug_ranges  0x00000000000010a0       0x10 NuttX/nuttx/arch/arm/src/libarch.a(arm_initialstate.o)
 .debug_ranges  0x00000000000010b0       0x10 NuttX/nuttx/arch/arm/src/libarch.a(arm_interruptcontext.o)
 .debug_ranges  0x00000000000010c0       0x28 NuttX/nuttx/arch/arm/src/libarch.a(arm_releasepending.o)
 .debug_ranges  0x00000000000010e8       0x10 NuttX/nuttx/arch/arm/src/libarch.a(arm_releasestack.o)
 .debug_ranges  0x00000000000010f8       0x10 NuttX/nuttx/arch/arm/src/libarch.a(arm_schedulesigaction.o)
 .debug_ranges  0x0000000000001108       0x10 NuttX/nuttx/arch/arm/src/libarch.a(arm_sigdeliver.o)
 .debug_ranges  0x0000000000001118       0x10 NuttX/nuttx/arch/arm/src/libarch.a(arm_stackframe.o)
 .debug_ranges  0x0000000000001128       0x28 NuttX/nuttx/arch/arm/src/libarch.a(arm_unblocktask.o)
 .debug_ranges  0x0000000000001150       0x10 NuttX/nuttx/arch/arm/src/libarch.a(arm_usestack.o)
 .debug_ranges  0x0000000000001160       0x10 NuttX/nuttx/arch/arm/src/libarch.a(arm_idle.o)
 .debug_ranges  0x0000000000001170       0x88 NuttX/nuttx/arch/arm/src/libarch.a(arm_checkstack.o)
 .debug_ranges  0x00000000000011f8      0x2c0 NuttX/nuttx/arch/arm/src/libarch.a(stm32_serial.o)
 .debug_ranges  0x00000000000014b8      0x740 NuttX/nuttx/arch/arm/src/libarch.a(stm32_otgdev.o)
 .debug_ranges  0x0000000000001bf8       0x10 NuttX/nuttx/arch/arm/src/libarch.a(arm_mdelay.o)
 .debug_ranges  0x0000000000001c08       0x10 NuttX/nuttx/mm/libmm.a(umm_initialize.o)
 .debug_ranges  0x0000000000001c18       0x10 NuttX/nuttx/mm/libmm.a(umm_free.o)
 .debug_ranges  0x0000000000001c28       0x10 NuttX/nuttx/mm/libmm.a(umm_malloc.o)
 .debug_ranges  0x0000000000001c38       0x10 NuttX/nuttx/mm/libmm.a(umm_memalign.o)
 .debug_ranges  0x0000000000001c48       0x10 NuttX/nuttx/mm/libmm.a(umm_zalloc.o)
 .debug_ranges  0x0000000000001c58       0x18 NuttX/nuttx/mm/libmm.a(mm_initialize.o)
 .debug_ranges  0x0000000000001c70       0x20 NuttX/nuttx/mm/libmm.a(mm_sem.o)
 .debug_ranges  0x0000000000001c90       0x10 NuttX/nuttx/mm/libmm.a(mm_addfreechunk.o)
 .debug_ranges  0x0000000000001ca0       0x10 NuttX/nuttx/mm/libmm.a(mm_size2ndx.o)
 .debug_ranges  0x0000000000001cb0       0x60 NuttX/nuttx/mm/libmm.a(mm_free.o)
 .debug_ranges  0x0000000000001d10       0x90 NuttX/nuttx/mm/libmm.a(mm_malloc.o)
 .debug_ranges  0x0000000000001da0       0x10 NuttX/nuttx/mm/libmm.a(mm_memalign.o)
 .debug_ranges  0x0000000000001db0       0x10 NuttX/nuttx/mm/libmm.a(mm_zalloc.o)
 .debug_ranges  0x0000000000001dc0       0x30 NuttX/nuttx/mm/libmm.a(mm_shrinkchunk.o)
 .debug_ranges  0x0000000000001df0       0x10 NuttX/nuttx/libs/libc/libc.a(lib_errno.o)
 .debug_ranges  0x0000000000001e00       0x18 NuttX/nuttx/libs/libc/libc.a(lib_stream.o)
 .debug_ranges  0x0000000000001e18       0x20 NuttX/nuttx/libs/libc/libc.a(lib_filesem.o)
 .debug_ranges  0x0000000000001e38       0x10 NuttX/nuttx/libs/libc/libc.a(sq_addlast.o)
 .debug_ranges  0x0000000000001e48       0x10 NuttX/nuttx/libs/libc/libc.a(sq_rem.o)
 .debug_ranges  0x0000000000001e58       0x10 NuttX/nuttx/libs/libc/libc.a(sq_remfirst.o)
 .debug_ranges  0x0000000000001e68       0x10 NuttX/nuttx/libs/libc/libc.a(sq_remafter.o)
 .debug_ranges  0x0000000000001e78       0x10 NuttX/nuttx/libs/libc/libc.a(dq_addlast.o)
 .debug_ranges  0x0000000000001e88       0x10 NuttX/nuttx/libs/libc/libc.a(dq_addfirst.o)
 .debug_ranges  0x0000000000001e98       0x10 NuttX/nuttx/libs/libc/libc.a(dq_rem.o)
 .debug_ranges  0x0000000000001ea8       0x60 NuttX/nuttx/libs/libc/libc.a(task_startup.o)
 .debug_ranges  0x0000000000001f08       0x38 NuttX/nuttx/libs/libc/libc.a(sem_init.o)
 .debug_ranges  0x0000000000001f40       0x18 NuttX/nuttx/libs/libc/libc.a(sig_addset.o)
 .debug_ranges  0x0000000000001f58       0x18 NuttX/nuttx/libs/libc/libc.a(sig_delset.o)
 .debug_ranges  0x0000000000001f70       0x10 NuttX/nuttx/libs/libc/libc.a(sig_emptyset.o)
 .debug_ranges  0x0000000000001f80       0x18 NuttX/nuttx/libs/libc/libc.a(sig_ismember.o)
 .debug_ranges  0x0000000000001f98       0x10 NuttX/nuttx/libs/libc/libc.a(lib_printf.o)
 .debug_ranges  0x0000000000001fa8       0x30 NuttX/nuttx/libs/libc/libc.a(lib_libflushall.o)
 .debug_ranges  0x0000000000001fd8       0x10 NuttX/nuttx/libs/libc/libc.a(lib_libfflush.o)
 .debug_ranges  0x0000000000001fe8       0x10 NuttX/nuttx/libs/libc/libc.a(lib_vfprintf.o)
 .debug_ranges  0x0000000000001ff8       0x20 NuttX/nuttx/libs/libc/libc.a(lib_stdoutstream.o)
 .debug_ranges  0x0000000000002018       0x10 NuttX/nuttx/libs/libc/libc.a(lib_memset.o)
 .debug_ranges  0x0000000000002028       0x10 NuttX/nuttx/libs/libc/libc.a(lib_strcpy.o)
 .debug_ranges  0x0000000000002038       0x10 NuttX/nuttx/libs/libc/libc.a(lib_strlen.o)
 .debug_ranges  0x0000000000002048       0x10 NuttX/nuttx/libs/libc/libc.a(lib_strncpy.o)
 .debug_ranges  0x0000000000002058       0x18 NuttX/nuttx/libs/libc/libc.a(lib_cfspeed.o)
 .debug_ranges  0x0000000000002070       0x10 NuttX/nuttx/libs/libc/libc.a(tls_getinfo.o)
 .debug_ranges  0x0000000000002080       0x18 NuttX/nuttx/libs/libc/libc.a(lib_streamsem.o)
 .debug_ranges  0x0000000000002098       0x10 NuttX/nuttx/libs/libc/libc.a(lib_libnoflush.o)
 .debug_ranges  0x00000000000020a8       0xf0 NuttX/nuttx/libs/libc/libc.a(lib_libvsprintf.o)
 .debug_ranges  0x0000000000002198       0x38 NuttX/nuttx/libs/libc/libc.a(lib_ultoa_invert.o)
 .debug_ranges  0x00000000000021d0       0x10 NuttX/nuttx/libs/libc/libc.a(lib_dtoa_engine.o)
 .debug_ranges  0x00000000000021e0       0x10 NuttX/nuttx/libs/libc/libc.a(lib_fputc.o)
 .debug_ranges  0x00000000000021f0       0x10 NuttX/nuttx/libs/libc/libc.a(lib_strnlen.o)
 .debug_ranges  0x0000000000002200       0x28 NuttX/nuttx/libs/libc/libc.a(lib_libfwrite.o)
 .debug_ranges  0x0000000000002228       0x28 NuttX/nuttx/libs/libc/libc.a(lib_rdflush.o)
 .debug_ranges  0x0000000000002250       0x10 NuttX/nuttx/libs/libc/libc.a(lib_fseek.o)
 .debug_ranges  0x0000000000002260       0x10 NuttX/nuttx/libs/libc/libc.a(lib_wrflush.o)
 .debug_ranges  0x0000000000002270      0x2b8 platforms/nuttx/src/bootloader/common/libbootloader.a(bl.c.obj)
 .debug_ranges  0x0000000000002528       0x40 platforms/nuttx/src/bootloader/common/lib/libbootloader_lib.a(cdcacm.c.obj)
 .debug_ranges  0x0000000000002568       0x48 platforms/nuttx/src/bootloader/common/lib/libbootloader_lib.a(uart.c.obj)
 .debug_ranges  0x00000000000025b0       0x28 NuttX/nuttx/boards/libboards.a(boardctl.o)
 .debug_ranges  0x00000000000025d8      0x3c0 NuttX/nuttx/drivers/libdrivers.a(serial.o)
 .debug_ranges  0x0000000000002998       0x40 NuttX/nuttx/drivers/libdrivers.a(serial_io.o)
 .debug_ranges  0x00000000000029d8       0x10 NuttX/nuttx/drivers/libdrivers.a(syslog_flush.o)
 .debug_ranges  0x00000000000029e8       0x10 NuttX/nuttx/drivers/libdrivers.a(syslog_initialize.o)
 .debug_ranges  0x00000000000029f8      0x508 NuttX/nuttx/drivers/libdrivers.a(cdcacm.o)
 .debug_ranges  0x0000000000002f00      0x178 NuttX/nuttx/drivers/libdrivers.a(cdcacm_desc.o)
 .debug_ranges  0x0000000000003078       0x28 NuttX/nuttx/drivers/libdrivers.a(dev_null.o)
 .debug_ranges  0x00000000000030a0       0x28 NuttX/nuttx/drivers/libdrivers.a(syslog_channel.o)
 .debug_ranges  0x00000000000030c8       0x10 NuttX/nuttx/fs/libfs.a(fs_initialize.o)
 .debug_ranges  0x00000000000030d8       0x70 NuttX/nuttx/fs/libfs.a(fs_files.o)
 .debug_ranges  0x0000000000003148       0x20 NuttX/nuttx/fs/libfs.a(fs_inode.o)
 .debug_ranges  0x0000000000003168       0x98 NuttX/nuttx/fs/libfs.a(fs_inodereserve.o)
 .debug_ranges  0x0000000000003200       0x68 NuttX/nuttx/fs/libfs.a(fs_inodesearch.o)
 .debug_ranges  0x0000000000003268       0x10 NuttX/nuttx/fs/libfs.a(fs_close.o)
 .debug_ranges  0x0000000000003278       0x10 NuttX/nuttx/fs/libfs.a(fs_dup2.o)
 .debug_ranges  0x0000000000003288       0x20 NuttX/nuttx/fs/libfs.a(fs_lseek.o)
 .debug_ranges  0x00000000000032a8       0x38 NuttX/nuttx/fs/libfs.a(fs_open.o)
 .debug_ranges  0x00000000000032e0       0x20 NuttX/nuttx/fs/libfs.a(fs_read.o)
 .debug_ranges  0x0000000000003300       0x20 NuttX/nuttx/fs/libfs.a(fs_write.o)
 .debug_ranges  0x0000000000003320       0x38 NuttX/nuttx/fs/libfs.a(fs_fdopen.o)
 .debug_ranges  0x0000000000003358       0x10 NuttX/nuttx/fs/libfs.a(fs_registerdriver.o)
 .debug_ranges  0x0000000000003368       0x10 NuttX/nuttx/fs/libfs.a(fs_unregisterdriver.o)
 .debug_ranges  0x0000000000003378       0x10 NuttX/nuttx/fs/libfs.a(fs_inodeaddref.o)
 .debug_ranges  0x0000000000003388       0x10 NuttX/nuttx/fs/libfs.a(fs_inodefind.o)
 .debug_ranges  0x0000000000003398       0x10 NuttX/nuttx/fs/libfs.a(fs_inoderelease.o)
 .debug_ranges  0x00000000000033a8       0x18 NuttX/nuttx/fs/libfs.a(fs_inoderemove.o)
 .debug_ranges  0x00000000000033c0       0x10 NuttX/nuttx/fs/libfs.a(fs_inodefree.o)
 .debug_ranges  0x00000000000033d0       0x20 NuttX/nuttx/sched/libsched.a(clock_initialize.o)
 .debug_ranges  0x00000000000033f0       0x10 NuttX/nuttx/sched/libsched.a(sched_getfiles.o)
 .debug_ranges  0x0000000000003400       0x10 NuttX/nuttx/sched/libsched.a(sched_addreadytorun.o)
 .debug_ranges  0x0000000000003410       0x10 NuttX/nuttx/sched/libsched.a(sched_removereadytorun.o)
 .debug_ranges  0x0000000000003420       0x10 NuttX/nuttx/sched/libsched.a(sched_mergepending.o)
 .debug_ranges  0x0000000000003430       0x10 NuttX/nuttx/sched/libsched.a(sched_getstreams.o)
 .debug_ranges  0x0000000000003440       0x10 NuttX/nuttx/sched/libsched.a(sched_idletask.o)
 .debug_ranges  0x0000000000003450       0x10 NuttX/nuttx/sched/libsched.a(sched_self.o)
 .debug_ranges  0x0000000000003460       0x10 NuttX/nuttx/sched/libsched.a(sched_get_stackinfo.o)
 .debug_ranges  0x0000000000003470       0x38 NuttX/nuttx/sched/libsched.a(sem_wait.o)
 .debug_ranges  0x00000000000034a8       0x18 NuttX/nuttx/sched/libsched.a(sem_trywait.o)
 .debug_ranges  0x00000000000034c0       0x48 NuttX/nuttx/sched/libsched.a(sem_post.o)
 .debug_ranges  0x0000000000003508       0x28 NuttX/nuttx/sched/libsched.a(sem_reset.o)
 .debug_ranges  0x0000000000003530       0x18 NuttX/nuttx/sched/libsched.a(sig_kill.o)
 .debug_ranges  0x0000000000003548       0x10 NuttX/nuttx/sched/libsched.a(sig_usleep.o)
 .debug_ranges  0x0000000000003558       0x10 NuttX/nuttx/sched/libsched.a(task_exit.o)
 .debug_ranges  0x0000000000003568       0x10 NuttX/nuttx/sched/libsched.a(task_getpid.o)
 .debug_ranges  0x0000000000003578       0x70 NuttX/nuttx/sched/libsched.a(task_terminate.o)
 .debug_ranges  0x00000000000035e8       0x50 NuttX/nuttx/sched/libsched.a(wd_start.o)
 .debug_ranges  0x0000000000003638       0xa0 NuttX/nuttx/sched/libsched.a(sig_nanosleep.o)
 .debug_ranges  0x00000000000036d8       0x20 NuttX/nuttx/sched/libsched.a(sig_timedwait.o)
 .debug_ranges  0x00000000000036f8       0x18 NuttX/nuttx/arch/arm/src/libarch.a(stm32_timerisr.o)
 .debug_ranges  0x0000000000003710       0x10 NuttX/nuttx/mm/libmm.a(umm_realloc.o)
 .debug_ranges  0x0000000000003720       0x60 NuttX/nuttx/mm/libmm.a(mm_realloc.o)
 .debug_ranges  0x0000000000003780       0x18 NuttX/nuttx/libs/libc/libc.a(lib_umask.o)
 .debug_ranges  0x0000000000003798       0x10 NuttX/nuttx/libs/libc/libc.a(sq_addfirst.o)
 .debug_ranges  0x00000000000037a8       0x10 NuttX/nuttx/libs/libc/libc.a(sq_addafter.o)
 .debug_ranges  0x00000000000037b8       0x10 NuttX/nuttx/libs/libc/libc.a(clock_ticks2time.o)
 .debug_ranges  0x00000000000037c8       0x10 NuttX/nuttx/libs/libc/libc.a(clock_time2ticks.o)
 .debug_ranges  0x00000000000037d8       0x18 NuttX/nuttx/libs/libc/libc.a(sem_getvalue.o)
 .debug_ranges  0x00000000000037f0       0x18 NuttX/nuttx/libs/libc/libc.a(sem_setprotocol.o)
 .debug_ranges  0x0000000000003808       0x10 NuttX/nuttx/libs/libc/libc.a(lib_asprintf.o)
 .debug_ranges  0x0000000000003818       0x10 NuttX/nuttx/libs/libc/libc.a(lib_snprintf.o)
 .debug_ranges  0x0000000000003828       0x10 NuttX/nuttx/libs/libc/libc.a(lib_vasprintf.o)
 .debug_ranges  0x0000000000003838       0x18 NuttX/nuttx/libs/libc/libc.a(lib_memoutstream.o)
 .debug_ranges  0x0000000000003850       0x18 NuttX/nuttx/libs/libc/libc.a(lib_nulloutstream.o)
 .debug_ranges  0x0000000000003868       0x10 NuttX/nuttx/libs/libc/libc.a(lib_atol.o)
 .debug_ranges  0x0000000000003878       0x28 NuttX/nuttx/libs/libc/libc.a(lib_strtol.o)
 .debug_ranges  0x00000000000038a0       0x10 NuttX/nuttx/libs/libc/libc.a(lib_strtoul.o)
 .debug_ranges  0x00000000000038b0       0x10 NuttX/nuttx/libs/libc/libc.a(lib_checkbase.o)
 .debug_ranges  0x00000000000038c0       0x10 NuttX/nuttx/libs/libc/libc.a(lib_isbasedigit.o)
 .debug_ranges  0x00000000000038d0       0x10 NuttX/nuttx/libs/libc/libc.a(lib_skipspace.o)
 .debug_ranges  0x00000000000038e0       0x10 NuttX/nuttx/libs/libc/libc.a(lib_strdup.o)
 .debug_ranges  0x00000000000038f0       0x10 NuttX/nuttx/libs/libc/libc.a(lib_strtok.o)
 .debug_ranges  0x0000000000003900       0x10 NuttX/nuttx/libs/libc/libc.a(lib_strtokr.o)
 .debug_ranges  0x0000000000003910       0x10 NuttX/nuttx/libs/libc/libc.a(lib_strchr.o)
 .debug_ranges  0x0000000000003920       0x10 NuttX/nuttx/libs/libc/libc.a(lib_tcgetattr.o)
 .debug_ranges  0x0000000000003930       0x10 NuttX/nuttx/libs/libc/libc.a(lib_tcsetattr.o)
 .debug_ranges  0x0000000000003940       0x10 NuttX/nuttx/libs/libc/libc.a(task_getinfo.o)
 .debug_ranges  0x0000000000003950       0x10 NuttX/nuttx/libs/libc/libc.a(lib_isspace.o)
 .debug_ranges  0x0000000000003960       0x10 NuttX/nuttx/libs/libc/libc.a(lib_tcflush.o)
 .debug_ranges  0x0000000000003970       0x10 NuttX/nuttx/drivers/libdrivers.a(tcdrain.o)
 .debug_ranges  0x0000000000003980       0x70 NuttX/nuttx/fs/libfs.a(fs_ioctl.o)
 .debug_ranges  0x00000000000039f0       0x10 NuttX/nuttx/fs/libfs.a(fs_inodegetpath.o)
 .debug_ranges  0x0000000000003a00       0x88 NuttX/nuttx/fs/libfs.a(fs_fcntl.o)
 .debug_ranges  0x0000000000003a88       0x20 NuttX/nuttx/fs/libfs.a(fs_dup.o)
 .debug_ranges  0x0000000000003aa8       0x10 NuttX/nuttx/sched/libsched.a(sched_processtimer.o)
 .debug_ranges  0x0000000000003ab8       0x10 NuttX/nuttx/libs/libc/libc.a(lib_strcat.o)
 .debug_ranges  0x0000000000003ac8      0x1a8 platforms/nuttx/src/bootloader/stm/stm32h7/arch_bootloader/libarch_bootloader.a(main.c.obj)
 .debug_ranges  0x0000000000003c70       0x40 platforms/nuttx/src/bootloader/stm/stm32h7/arch_bootloader/libarch_bootloader.a(systick.c.obj)
 .debug_ranges  0x0000000000003cb0       0x18 platforms/nuttx/src/px4/stm/stm32h7/board_reset/libarch_board_reset.a(board_reset.cpp.obj)
 .debug_ranges  0x0000000000003cc8       0x10 NuttX/nuttx/arch/arm/src/libarch.a(arm_systemreset.o)
 .debug_ranges  0x0000000000003cd8      0x150 NuttX/nuttx/arch/arm/src/libarch.a(stm32_flash.o)
 .debug_ranges  0x0000000000003e28      0x100 platforms/nuttx/src/bootloader/common/lib/libbootloader_lib.a(flash_cache.c.obj)

.debug_frame    0x0000000000000000     0x4620
 .debug_frame   0x0000000000000000       0x28 NuttX/nuttx/arch/arm/src/libarch.a(stm32_start.o)
 .debug_frame   0x0000000000000028       0x44 NuttX/nuttx/arch/arm/src/libarch.a(stm32_rcc.o)
 .debug_frame   0x000000000000006c       0x30 NuttX/nuttx/arch/arm/src/libarch.a(stm32_lowputc.o)
 .debug_frame   0x000000000000009c       0xc8 NuttX/nuttx/arch/arm/src/libarch.a(stm32_pwr.o)
 .debug_frame   0x0000000000000164       0x30 NuttX/nuttx/arch/arm/src/libarch.a(arm_doirq.o)
 .debug_frame   0x0000000000000194       0x2c NuttX/nuttx/arch/arm/src/libarch.a(arm_modifyreg32.o)
 .debug_frame   0x00000000000001c0       0x2c NuttX/nuttx/arch/arm/src/libarch.a(arm_udelay.o)
 .debug_frame   0x00000000000001ec       0x50 NuttX/nuttx/arch/arm/src/libarch.a(arm_cache.o)
 .debug_frame   0x000000000000023c       0x90 NuttX/nuttx/arch/arm/src/libarch.a(stm32_irq.o)
 .debug_frame   0x00000000000002cc       0x28 NuttX/nuttx/arch/arm/src/libarch.a(arm_hardfault.o)
 .debug_frame   0x00000000000002f4       0x28 NuttX/nuttx/arch/arm/src/libarch.a(arm_svcall.o)
 .debug_frame   0x000000000000031c       0x28 NuttX/nuttx/libs/libc/libc.a(lib_assert.o)
 .debug_frame   0x0000000000000344       0x28 NuttX/nuttx/libs/libc/libc.a(lib_abort.o)
 .debug_frame   0x000000000000036c       0x60 boards/hkust/nxt/src/libdrivers_board.a(bootloader_main.c.obj)
 .debug_frame   0x00000000000003cc       0x30 boards/hkust/nxt/src/libdrivers_board.a(usb.c.obj)
 .debug_frame   0x00000000000003fc       0x28 NuttX/nuttx/sched/libsched.a(nx_start.o)
 .debug_frame   0x0000000000000424       0x48 NuttX/nuttx/sched/libsched.a(nx_bringup.o)
 .debug_frame   0x000000000000046c       0x2c NuttX/nuttx/sched/libsched.a(irq_attach.o)
 .debug_frame   0x0000000000000498       0x28 NuttX/nuttx/sched/libsched.a(irq_dispatch.o)
 .debug_frame   0x00000000000004c0       0x28 NuttX/nuttx/sched/libsched.a(irq_unexpectedisr.o)
 .debug_frame   0x00000000000004e8       0x28 NuttX/nuttx/sched/libsched.a(sched_lock.o)
 .debug_frame   0x0000000000000510       0x2c NuttX/nuttx/sched/libsched.a(sched_unlock.o)
 .debug_frame   0x000000000000053c       0xa4 NuttX/nuttx/sched/libsched.a(task_create.o)
 .debug_frame   0x00000000000005e0       0x54 NuttX/nuttx/sched/libsched.a(task_init.o)
 .debug_frame   0x0000000000000634       0x6c NuttX/nuttx/sched/libsched.a(task_setup.o)
 .debug_frame   0x00000000000006a0       0x28 NuttX/nuttx/sched/libsched.a(task_activate.o)
 .debug_frame   0x00000000000006c8       0x2c NuttX/nuttx/sched/libsched.a(task_start.o)
 .debug_frame   0x00000000000006f4       0x40 NuttX/nuttx/sched/libsched.a(exit.o)
 .debug_frame   0x0000000000000734       0x5c NuttX/nuttx/sched/libsched.a(group_create.o)
 .debug_frame   0x0000000000000790       0x2c NuttX/nuttx/sched/libsched.a(group_leave.o)
 .debug_frame   0x00000000000007bc       0x2c NuttX/nuttx/sched/libsched.a(group_setupidlefiles.o)
 .debug_frame   0x00000000000007e8       0x2c NuttX/nuttx/sched/libsched.a(group_setuptaskfiles.o)
 .debug_frame   0x0000000000000814       0x20 NuttX/nuttx/sched/libsched.a(irq_initialize.o)
 .debug_frame   0x0000000000000834       0x2c NuttX/nuttx/sched/libsched.a(sched_releasetcb.o)
 .debug_frame   0x0000000000000860       0x38 NuttX/nuttx/sched/libsched.a(sem_destroy.o)
 .debug_frame   0x0000000000000898       0x48 NuttX/nuttx/sched/libsched.a(sig_procmask.o)
 .debug_frame   0x00000000000008e0       0x34 NuttX/nuttx/sched/libsched.a(sig_unmaskpendingsignal.o)
 .debug_frame   0x0000000000000914       0x2c NuttX/nuttx/sched/libsched.a(sig_removependingsignal.o)
 .debug_frame   0x0000000000000940       0x2c NuttX/nuttx/sched/libsched.a(sig_releasependingsignal.o)
 .debug_frame   0x000000000000096c       0x2c NuttX/nuttx/sched/libsched.a(sig_lowest.o)
 .debug_frame   0x0000000000000998       0x48 NuttX/nuttx/sched/libsched.a(sig_cleanup.o)
 .debug_frame   0x00000000000009e0       0x54 NuttX/nuttx/sched/libsched.a(sig_dispatch.o)
 .debug_frame   0x0000000000000a34       0x40 NuttX/nuttx/sched/libsched.a(sig_deliver.o)
 .debug_frame   0x0000000000000a74       0xc0 NuttX/nuttx/sched/libsched.a(sig_default.o)
 .debug_frame   0x0000000000000b34       0x28 NuttX/nuttx/sched/libsched.a(task_exithook.o)
 .debug_frame   0x0000000000000b5c       0x2c NuttX/nuttx/sched/libsched.a(task_recover.o)
 .debug_frame   0x0000000000000b88       0x20 NuttX/nuttx/sched/libsched.a(task_cancelpt.o)
 .debug_frame   0x0000000000000ba8       0x20 NuttX/nuttx/sched/libsched.a(wd_recover.o)
 .debug_frame   0x0000000000000bc8       0x28 NuttX/nuttx/sched/libsched.a(group_setupstreams.o)
 .debug_frame   0x0000000000000bf0       0x28 NuttX/nuttx/sched/libsched.a(sched_gettcb.o)
 .debug_frame   0x0000000000000c18       0x2c NuttX/nuttx/sched/libsched.a(sched_suspend.o)
 .debug_frame   0x0000000000000c44       0x28 NuttX/nuttx/sched/libsched.a(sched_continue.o)
 .debug_frame   0x0000000000000c6c       0x20 NuttX/nuttx/sched/libsched.a(sem_recover.o)
 .debug_frame   0x0000000000000c8c       0x2c NuttX/nuttx/sched/libsched.a(sem_waitirq.o)
 .debug_frame   0x0000000000000cb8       0x4c NuttX/nuttx/sched/libsched.a(sig_initialize.o)
 .debug_frame   0x0000000000000d04       0x5c NuttX/nuttx/sched/libsched.a(sig_action.o)
 .debug_frame   0x0000000000000d60       0x48 NuttX/nuttx/sched/libsched.a(sig_pending.o)
 .debug_frame   0x0000000000000da8       0x2c NuttX/nuttx/sched/libsched.a(sig_findaction.o)
 .debug_frame   0x0000000000000dd4       0x30 NuttX/nuttx/sched/libsched.a(sig_allocpendingsigaction.o)
 .debug_frame   0x0000000000000e04       0x2c NuttX/nuttx/sched/libsched.a(sig_releasependingsigaction.o)
 .debug_frame   0x0000000000000e30       0x2c NuttX/nuttx/sched/libsched.a(wd_cancel.o)
 .debug_frame   0x0000000000000e5c       0x2c NuttX/nuttx/sched/libsched.a(sched_addblocked.o)
 .debug_frame   0x0000000000000e88       0x28 NuttX/nuttx/sched/libsched.a(sched_removeblocked.o)
 .debug_frame   0x0000000000000eb0       0x20 NuttX/nuttx/sched/libsched.a(wd_initialize.o)
 .debug_frame   0x0000000000000ed0       0x28 NuttX/nuttx/sched/libsched.a(sched_addprioritized.o)
 .debug_frame   0x0000000000000ef8       0x50 NuttX/apps/libapps.a(cdcacm_main.c.src.NxtPX4.PX4-Autopilot.platforms.nuttx.NuttX.apps.system.cdcacm.o)
 .debug_frame   0x0000000000000f48       0x20 NuttX/nuttx/arch/arm/src/libarch.a(stm32_allocateheap.o)
 .debug_frame   0x0000000000000f68       0x74 NuttX/nuttx/arch/arm/src/libarch.a(stm32_gpio.o)
 .debug_frame   0x0000000000000fdc       0x30 NuttX/nuttx/arch/arm/src/libarch.a(arm_assert.o)
 .debug_frame   0x000000000000100c       0x40 NuttX/nuttx/arch/arm/src/libarch.a(arm_blocktask.o)
 .debug_frame   0x000000000000104c       0x20 NuttX/nuttx/arch/arm/src/libarch.a(arm_copyfullstate.o)
 .debug_frame   0x000000000000106c       0x2c NuttX/nuttx/arch/arm/src/libarch.a(arm_createstack.o)
 .debug_frame   0x0000000000001098       0x28 NuttX/nuttx/arch/arm/src/libarch.a(arm_exit.o)
 .debug_frame   0x00000000000010c0       0x2c NuttX/nuttx/arch/arm/src/libarch.a(arm_initialize.o)
 .debug_frame   0x00000000000010ec       0x2c NuttX/nuttx/arch/arm/src/libarch.a(arm_initialstate.o)
 .debug_frame   0x0000000000001118       0x20 NuttX/nuttx/arch/arm/src/libarch.a(arm_interruptcontext.o)
 .debug_frame   0x0000000000001138       0x34 NuttX/nuttx/arch/arm/src/libarch.a(arm_releasepending.o)
 .debug_frame   0x000000000000116c       0x28 NuttX/nuttx/arch/arm/src/libarch.a(arm_releasestack.o)
 .debug_frame   0x0000000000001194       0x38 NuttX/nuttx/arch/arm/src/libarch.a(arm_schedulesigaction.o)
 .debug_frame   0x00000000000011cc       0x30 NuttX/nuttx/arch/arm/src/libarch.a(arm_sigdeliver.o)
 .debug_frame   0x00000000000011fc       0x2c NuttX/nuttx/arch/arm/src/libarch.a(arm_stackframe.o)
 .debug_frame   0x0000000000001228       0x34 NuttX/nuttx/arch/arm/src/libarch.a(arm_unblocktask.o)
 .debug_frame   0x000000000000125c       0x2c NuttX/nuttx/arch/arm/src/libarch.a(arm_usestack.o)
 .debug_frame   0x0000000000001288       0x20 NuttX/nuttx/arch/arm/src/libarch.a(arm_idle.o)
 .debug_frame   0x00000000000012a8       0x90 NuttX/nuttx/arch/arm/src/libarch.a(arm_checkstack.o)
 .debug_frame   0x0000000000001338      0x1e0 NuttX/nuttx/arch/arm/src/libarch.a(stm32_serial.o)
 .debug_frame   0x0000000000001518      0x438 NuttX/nuttx/arch/arm/src/libarch.a(stm32_otgdev.o)
 .debug_frame   0x0000000000001950       0x2c NuttX/nuttx/arch/arm/src/libarch.a(arm_mdelay.o)
 .debug_frame   0x000000000000197c       0x28 NuttX/nuttx/mm/libmm.a(umm_initialize.o)
 .debug_frame   0x00000000000019a4       0x20 NuttX/nuttx/mm/libmm.a(umm_free.o)
 .debug_frame   0x00000000000019c4       0x20 NuttX/nuttx/mm/libmm.a(umm_malloc.o)
 .debug_frame   0x00000000000019e4       0x20 NuttX/nuttx/mm/libmm.a(umm_memalign.o)
 .debug_frame   0x0000000000001a04       0x20 NuttX/nuttx/mm/libmm.a(umm_zalloc.o)
 .debug_frame   0x0000000000001a24       0x54 NuttX/nuttx/mm/libmm.a(mm_initialize.o)
 .debug_frame   0x0000000000001a78       0x48 NuttX/nuttx/mm/libmm.a(mm_sem.o)
 .debug_frame   0x0000000000001ac0       0x2c NuttX/nuttx/mm/libmm.a(mm_addfreechunk.o)
 .debug_frame   0x0000000000001aec       0x20 NuttX/nuttx/mm/libmm.a(mm_size2ndx.o)
 .debug_frame   0x0000000000001b0c       0x34 NuttX/nuttx/mm/libmm.a(mm_free.o)
 .debug_frame   0x0000000000001b40       0x30 NuttX/nuttx/mm/libmm.a(mm_malloc.o)
 .debug_frame   0x0000000000001b70       0x44 NuttX/nuttx/mm/libmm.a(mm_memalign.o)
 .debug_frame   0x0000000000001bb4       0x2c NuttX/nuttx/mm/libmm.a(mm_zalloc.o)
 .debug_frame   0x0000000000001be0       0x3c NuttX/nuttx/mm/libmm.a(mm_shrinkchunk.o)
 .debug_frame   0x0000000000001c1c       0x28 NuttX/nuttx/libs/libc/libc.a(lib_errno.o)
 .debug_frame   0x0000000000001c44       0x5c NuttX/nuttx/libs/libc/libc.a(lib_stream.o)
 .debug_frame   0x0000000000001ca0       0x54 NuttX/nuttx/libs/libc/libc.a(lib_filesem.o)
 .debug_frame   0x0000000000001cf4       0x20 NuttX/nuttx/libs/libc/libc.a(sq_addlast.o)
 .debug_frame   0x0000000000001d14       0x20 NuttX/nuttx/libs/libc/libc.a(sq_rem.o)
 .debug_frame   0x0000000000001d34       0x20 NuttX/nuttx/libs/libc/libc.a(sq_remfirst.o)
 .debug_frame   0x0000000000001d54       0x20 NuttX/nuttx/libs/libc/libc.a(sq_remafter.o)
 .debug_frame   0x0000000000001d74       0x20 NuttX/nuttx/libs/libc/libc.a(dq_addlast.o)
 .debug_frame   0x0000000000001d94       0x20 NuttX/nuttx/libs/libc/libc.a(dq_addfirst.o)
 .debug_frame   0x0000000000001db4       0x20 NuttX/nuttx/libs/libc/libc.a(dq_rem.o)
 .debug_frame   0x0000000000001dd4       0x28 NuttX/nuttx/libs/libc/libc.a(task_startup.o)
 .debug_frame   0x0000000000001dfc       0x38 NuttX/nuttx/libs/libc/libc.a(sem_init.o)
 .debug_frame   0x0000000000001e34       0x38 NuttX/nuttx/libs/libc/libc.a(sig_addset.o)
 .debug_frame   0x0000000000001e6c       0x38 NuttX/nuttx/libs/libc/libc.a(sig_delset.o)
 .debug_frame   0x0000000000001ea4       0x20 NuttX/nuttx/libs/libc/libc.a(sig_emptyset.o)
 .debug_frame   0x0000000000001ec4       0x38 NuttX/nuttx/libs/libc/libc.a(sig_ismember.o)
 .debug_frame   0x0000000000001efc       0x40 NuttX/nuttx/libs/libc/libc.a(lib_printf.o)
 .debug_frame   0x0000000000001f3c       0x2c NuttX/nuttx/libs/libc/libc.a(lib_libflushall.o)
 .debug_frame   0x0000000000001f68       0x30 NuttX/nuttx/libs/libc/libc.a(lib_libfflush.o)
 .debug_frame   0x0000000000001f98       0x30 NuttX/nuttx/libs/libc/libc.a(lib_vfprintf.o)
 .debug_frame   0x0000000000001fc8       0x4c NuttX/nuttx/libs/libc/libc.a(lib_stdoutstream.o)
 .debug_frame   0x0000000000002014       0x30 NuttX/nuttx/libs/libc/libc.a(lib_memset.o)
 .debug_frame   0x0000000000002044       0x20 NuttX/nuttx/libs/libc/libc.a(lib_strcpy.o)
 .debug_frame   0x0000000000002064       0x20 NuttX/nuttx/libs/libc/libc.a(lib_strlen.o)
 .debug_frame   0x0000000000002084       0x28 NuttX/nuttx/libs/libc/libc.a(lib_strncpy.o)
 .debug_frame   0x00000000000020ac       0x3c NuttX/nuttx/libs/libc/libc.a(lib_cfspeed.o)
 .debug_frame   0x00000000000020e8       0x28 NuttX/nuttx/libs/libc/libc.a(tls_getinfo.o)
 .debug_frame   0x0000000000002110       0x38 NuttX/nuttx/libs/libc/libc.a(lib_streamsem.o)
 .debug_frame   0x0000000000002148       0x20 NuttX/nuttx/libs/libc/libc.a(lib_libnoflush.o)
 .debug_frame   0x0000000000002168       0x40 NuttX/nuttx/libs/libc/libc.a(lib_libvsprintf.o)
 .debug_frame   0x00000000000021a8       0x38 NuttX/nuttx/libs/libc/libc.a(lib_ultoa_invert.o)
 .debug_frame   0x00000000000021e0       0x3c NuttX/nuttx/libs/libc/libc.a(lib_dtoa_engine.o)
 .debug_frame   0x000000000000221c       0x30 NuttX/nuttx/libs/libc/libc.a(lib_fputc.o)
 .debug_frame   0x000000000000224c       0x28 NuttX/nuttx/libs/libc/libc.a(lib_strnlen.o)
 .debug_frame   0x0000000000002274       0x30 NuttX/nuttx/libs/libc/libc.a(lib_libfwrite.o)
 .debug_frame   0x00000000000022a4       0x28 NuttX/nuttx/libs/libc/libc.a(lib_rdflush.o)
 .debug_frame   0x00000000000022cc       0x2c NuttX/nuttx/libs/libc/libc.a(lib_fseek.o)
 .debug_frame   0x00000000000022f8       0x20 NuttX/nuttx/libs/libc/libc.a(lib_wrflush.o)
 .debug_frame   0x0000000000002318      0x150 platforms/nuttx/src/bootloader/common/libbootloader.a(bl.c.obj)
 .debug_frame   0x0000000000002468       0x80 platforms/nuttx/src/bootloader/common/lib/libbootloader_lib.a(cdcacm.c.obj)
 .debug_frame   0x00000000000024e8       0x90 platforms/nuttx/src/bootloader/common/lib/libbootloader_lib.a(uart.c.obj)
 .debug_frame   0x0000000000002578       0x28 NuttX/nuttx/boards/libboards.a(boardctl.o)
 .debug_frame   0x00000000000025a0      0x21c NuttX/nuttx/drivers/libdrivers.a(serial.o)
 .debug_frame   0x00000000000027bc       0x64 NuttX/nuttx/drivers/libdrivers.a(serial_io.o)
 .debug_frame   0x0000000000002820       0x28 NuttX/nuttx/drivers/libdrivers.a(syslog_flush.o)
 .debug_frame   0x0000000000002848       0x20 NuttX/nuttx/drivers/libdrivers.a(syslog_initialize.o)
 .debug_frame   0x0000000000002868      0x360 NuttX/nuttx/drivers/libdrivers.a(cdcacm.o)
 .debug_frame   0x0000000000002bc8       0x78 NuttX/nuttx/drivers/libdrivers.a(cdcacm_desc.o)
 .debug_frame   0x0000000000002c40       0x58 NuttX/nuttx/drivers/libdrivers.a(dev_null.o)
 .debug_frame   0x0000000000002c98       0x64 NuttX/nuttx/drivers/libdrivers.a(syslog_channel.o)
 .debug_frame   0x0000000000002cfc       0x20 NuttX/nuttx/fs/libfs.a(fs_initialize.o)
 .debug_frame   0x0000000000002d1c      0x150 NuttX/nuttx/fs/libfs.a(fs_files.o)
 .debug_frame   0x0000000000002e6c       0x58 NuttX/nuttx/fs/libfs.a(fs_inode.o)
 .debug_frame   0x0000000000002ec4       0x68 NuttX/nuttx/fs/libfs.a(fs_inodereserve.o)
 .debug_frame   0x0000000000002f2c       0x40 NuttX/nuttx/fs/libfs.a(fs_inodesearch.o)
 .debug_frame   0x0000000000002f6c       0x2c NuttX/nuttx/fs/libfs.a(fs_close.o)
 .debug_frame   0x0000000000002f98       0x38 NuttX/nuttx/fs/libfs.a(fs_dup2.o)
 .debug_frame   0x0000000000002fd0       0x60 NuttX/nuttx/fs/libfs.a(fs_lseek.o)
 .debug_frame   0x0000000000003030       0xf4 NuttX/nuttx/fs/libfs.a(fs_open.o)
 .debug_frame   0x0000000000003124       0x68 NuttX/nuttx/fs/libfs.a(fs_read.o)
 .debug_frame   0x000000000000318c       0x6c NuttX/nuttx/fs/libfs.a(fs_write.o)
 .debug_frame   0x00000000000031f8       0x3c NuttX/nuttx/fs/libfs.a(fs_fdopen.o)
 .debug_frame   0x0000000000003234       0x34 NuttX/nuttx/fs/libfs.a(fs_registerdriver.o)
 .debug_frame   0x0000000000003268       0x2c NuttX/nuttx/fs/libfs.a(fs_unregisterdriver.o)
 .debug_frame   0x0000000000003294       0x2c NuttX/nuttx/fs/libfs.a(fs_inodeaddref.o)
 .debug_frame   0x00000000000032c0       0x2c NuttX/nuttx/fs/libfs.a(fs_inodefind.o)
 .debug_frame   0x00000000000032ec       0x38 NuttX/nuttx/fs/libfs.a(fs_inoderelease.o)
 .debug_frame   0x0000000000003324       0x48 NuttX/nuttx/fs/libfs.a(fs_inoderemove.o)
 .debug_frame   0x000000000000336c       0x30 NuttX/nuttx/fs/libfs.a(fs_inodefree.o)
 .debug_frame   0x000000000000339c       0x48 NuttX/nuttx/sched/libsched.a(clock_initialize.o)
 .debug_frame   0x00000000000033e4       0x20 NuttX/nuttx/sched/libsched.a(sched_getfiles.o)
 .debug_frame   0x0000000000003404       0x28 NuttX/nuttx/sched/libsched.a(sched_addreadytorun.o)
 .debug_frame   0x000000000000342c       0x2c NuttX/nuttx/sched/libsched.a(sched_removereadytorun.o)
 .debug_frame   0x0000000000003458       0x30 NuttX/nuttx/sched/libsched.a(sched_mergepending.o)
 .debug_frame   0x0000000000003488       0x20 NuttX/nuttx/sched/libsched.a(sched_getstreams.o)
 .debug_frame   0x00000000000034a8       0x20 NuttX/nuttx/sched/libsched.a(sched_idletask.o)
 .debug_frame   0x00000000000034c8       0x20 NuttX/nuttx/sched/libsched.a(sched_self.o)
 .debug_frame   0x00000000000034e8       0x2c NuttX/nuttx/sched/libsched.a(sched_get_stackinfo.o)
 .debug_frame   0x0000000000003514       0x5c NuttX/nuttx/sched/libsched.a(sem_wait.o)
 .debug_frame   0x0000000000003570       0x40 NuttX/nuttx/sched/libsched.a(sem_trywait.o)
 .debug_frame   0x00000000000035b0       0x40 NuttX/nuttx/sched/libsched.a(sem_post.o)
 .debug_frame   0x00000000000035f0       0x2c NuttX/nuttx/sched/libsched.a(sem_reset.o)
 .debug_frame   0x000000000000361c       0x48 NuttX/nuttx/sched/libsched.a(sig_kill.o)
 .debug_frame   0x0000000000003664       0x28 NuttX/nuttx/sched/libsched.a(sig_usleep.o)
 .debug_frame   0x000000000000368c       0x2c NuttX/nuttx/sched/libsched.a(task_exit.o)
 .debug_frame   0x00000000000036b8       0x20 NuttX/nuttx/sched/libsched.a(task_getpid.o)
 .debug_frame   0x00000000000036d8       0x38 NuttX/nuttx/sched/libsched.a(task_terminate.o)
 .debug_frame   0x0000000000003710       0x4c NuttX/nuttx/sched/libsched.a(wd_start.o)
 .debug_frame   0x000000000000375c       0x5c NuttX/nuttx/sched/libsched.a(sig_nanosleep.o)
 .debug_frame   0x00000000000037b8       0x60 NuttX/nuttx/sched/libsched.a(sig_timedwait.o)
 .debug_frame   0x0000000000003818       0x44 NuttX/nuttx/arch/arm/src/libarch.a(stm32_timerisr.o)
 .debug_frame   0x000000000000385c       0x20 NuttX/nuttx/mm/libmm.a(umm_realloc.o)
 .debug_frame   0x000000000000387c       0x48 NuttX/nuttx/mm/libmm.a(mm_realloc.o)
 .debug_frame   0x00000000000038c4       0x40 NuttX/nuttx/libs/libc/libc.a(lib_umask.o)
 .debug_frame   0x0000000000003904       0x20 NuttX/nuttx/libs/libc/libc.a(sq_addfirst.o)
 .debug_frame   0x0000000000003924       0x20 NuttX/nuttx/libs/libc/libc.a(sq_addafter.o)
 .debug_frame   0x0000000000003944       0x20 NuttX/nuttx/libs/libc/libc.a(clock_ticks2time.o)
 .debug_frame   0x0000000000003964       0x2c NuttX/nuttx/libs/libc/libc.a(clock_time2ticks.o)
 .debug_frame   0x0000000000003990       0x38 NuttX/nuttx/libs/libc/libc.a(sem_getvalue.o)
 .debug_frame   0x00000000000039c8       0x38 NuttX/nuttx/libs/libc/libc.a(sem_setprotocol.o)
 .debug_frame   0x0000000000003a00       0x3c NuttX/nuttx/libs/libc/libc.a(lib_asprintf.o)
 .debug_frame   0x0000000000003a3c       0x3c NuttX/nuttx/libs/libc/libc.a(lib_snprintf.o)
 .debug_frame   0x0000000000003a78       0x34 NuttX/nuttx/libs/libc/libc.a(lib_vasprintf.o)
 .debug_frame   0x0000000000003aac       0x30 NuttX/nuttx/libs/libc/libc.a(lib_memoutstream.o)
 .debug_frame   0x0000000000003adc       0x30 NuttX/nuttx/libs/libc/libc.a(lib_nulloutstream.o)
 .debug_frame   0x0000000000003b0c       0x20 NuttX/nuttx/libs/libc/libc.a(lib_atol.o)
 .debug_frame   0x0000000000003b2c       0x2c NuttX/nuttx/libs/libc/libc.a(lib_strtol.o)
 .debug_frame   0x0000000000003b58       0x3c NuttX/nuttx/libs/libc/libc.a(lib_strtoul.o)
 .debug_frame   0x0000000000003b94       0x2c NuttX/nuttx/libs/libc/libc.a(lib_checkbase.o)
 .debug_frame   0x0000000000003bc0       0x20 NuttX/nuttx/libs/libc/libc.a(lib_isbasedigit.o)
 .debug_frame   0x0000000000003be0       0x2c NuttX/nuttx/libs/libc/libc.a(lib_skipspace.o)
 .debug_frame   0x0000000000003c0c       0x2c NuttX/nuttx/libs/libc/libc.a(lib_strdup.o)
 .debug_frame   0x0000000000003c38       0x20 NuttX/nuttx/libs/libc/libc.a(lib_strtok.o)
 .debug_frame   0x0000000000003c58       0x30 NuttX/nuttx/libs/libc/libc.a(lib_strtokr.o)
 .debug_frame   0x0000000000003c88       0x20 NuttX/nuttx/libs/libc/libc.a(lib_strchr.o)
 .debug_frame   0x0000000000003ca8       0x20 NuttX/nuttx/libs/libc/libc.a(lib_tcgetattr.o)
 .debug_frame   0x0000000000003cc8       0x34 NuttX/nuttx/libs/libc/libc.a(lib_tcsetattr.o)
 .debug_frame   0x0000000000003cfc       0x28 NuttX/nuttx/libs/libc/libc.a(task_getinfo.o)
 .debug_frame   0x0000000000003d24       0x20 NuttX/nuttx/libs/libc/libc.a(lib_isspace.o)
 .debug_frame   0x0000000000003d44       0x20 NuttX/nuttx/libs/libc/libc.a(lib_tcflush.o)
 .debug_frame   0x0000000000003d64       0x20 NuttX/nuttx/drivers/libdrivers.a(tcdrain.o)
 .debug_frame   0x0000000000003d84       0xdc NuttX/nuttx/fs/libfs.a(fs_ioctl.o)
 .debug_frame   0x0000000000003e60       0x2c NuttX/nuttx/fs/libfs.a(fs_inodegetpath.o)
 .debug_frame   0x0000000000003e8c       0xb4 NuttX/nuttx/fs/libfs.a(fs_fcntl.o)
 .debug_frame   0x0000000000003f40       0x60 NuttX/nuttx/fs/libfs.a(fs_dup.o)
 .debug_frame   0x0000000000003fa0       0x2c NuttX/nuttx/sched/libsched.a(sched_processtimer.o)
 .debug_frame   0x0000000000003fcc       0x2c NuttX/nuttx/libs/libc/libc.a(lib_strcat.o)
 .debug_frame   0x0000000000003ff8       0x44 /opt/gcc/bin/../lib/gcc/arm-none-eabi/9.3.1/thumb/v7e-m+dp/hard/libgcc.a(_aeabi_ldivmod.o)
 .debug_frame   0x000000000000403c       0x2c /opt/gcc/bin/../lib/gcc/arm-none-eabi/9.3.1/thumb/v7e-m+dp/hard/libgcc.a(_aeabi_uldivmod.o)
 .debug_frame   0x0000000000004068       0x20 /opt/gcc/bin/../lib/gcc/arm-none-eabi/9.3.1/thumb/v7e-m+dp/hard/libgcc.a(_fixunsdfdi.o)
 .debug_frame   0x0000000000004088       0x34 /opt/gcc/bin/../lib/gcc/arm-none-eabi/9.3.1/thumb/v7e-m+dp/hard/libgcc.a(_udivmoddi4.o)
 .debug_frame   0x00000000000040bc      0x1f8 platforms/nuttx/src/bootloader/stm/stm32h7/arch_bootloader/libarch_bootloader.a(main.c.obj)
 .debug_frame   0x00000000000042b4       0x88 platforms/nuttx/src/bootloader/stm/stm32h7/arch_bootloader/libarch_bootloader.a(systick.c.obj)
 .debug_frame   0x000000000000433c       0x44 platforms/nuttx/src/px4/stm/stm32h7/board_reset/libarch_board_reset.a(board_reset.cpp.obj)
 .debug_frame   0x0000000000004380       0x20 NuttX/nuttx/arch/arm/src/libarch.a(arm_systemreset.o)
 .debug_frame   0x00000000000043a0      0x1fc NuttX/nuttx/arch/arm/src/libarch.a(stm32_flash.o)
 .debug_frame   0x000000000000459c       0x84 platforms/nuttx/src/bootloader/common/lib/libbootloader_lib.a(flash_cache.c.obj)
